ASxxxx Linker V03.00/V05.40 + sdld,  page 1.
Hexadecimal  [32-Bits]

Area                                    Addr        Size        Decimal Bytes (Attributes)
--------------------------------        ----        ----        ------- ----- ------------
.  .ABS.                            00000000    00000000 =           0. bytes (ABS,CON)

      Value  Global                              Global Defined In Module
      -----  --------------------------------   ------------------------
     00000000  .__.ABS.                           
     00000000  _rRAMG                             
     00000000  l__BASE                         
     00000000  l__BSS                          
     00000000  l__CABS                         
     00000000  l__CODE_0                       
     00000000  l__CRASH_HEADER                 
     00000000  l__CRASH_SCRATCH                
     00000000  l__DABS                         
     00000000  l__HEADER                       
     00000000  l__HEADER_LCD                   
     00000000  l__HEADER_SIO                   
     00000000  l__HEADER_TIMER                 
     00000000  l__HEAP                         
     00000000  l__HEAP_END                     
     00000000  l__HRAM                         
     00000000  l__LIT                          
     00000000  s__CABS                         
     00000000  s__CRASH_HEADER                 
     00000000  s__CRASH_HEADER0                
     00000000  s__CRASH_HEADER1                
     00000000  s__CRASH_SCRATCH                
     00000000  s__CRASH_SCRATCH2               
     00000000  s__DABS                         
     00000000  s__HEADER                       
     00000000  s__HEADER0                      
     00000000  s__HEADER1                      
     00000000  s__HEADER10                     
     00000000  s__HEADER11                     
     00000000  s__HEADER2                      
     00000000  s__HEADER3                      
     00000000  s__HEADER4                      
     00000000  s__HEADER5                      
     00000000  s__HEADER6                      
     00000000  s__HEADER7                      
     00000000  s__HEADER8                      
     00000000  s__HEADER9                      
     00000000  s__HEADER_LCD                   
     00000000  s__HEADER_LCD0                  
     00000000  s__HEADER_SIO                   
     00000000  s__HEADER_SIO0                  
     00000000  s__HEADER_TIMER                 
     00000000  s__HEADER_TIMER0                
     00000000  s__HEADERa                      
     00000000  s__HEADERb                      
     00000000  s__HEADERc                      
     00000000  s__HEADERd                      
     00000000  s__HEADERe                      
     00000000  s__HEADERf                      
     00000000  s__HRAM                         
ASxxxx Linker V03.00/V05.40 + sdld,  page 2.
Hexadecimal  [32-Bits]

Area                                    Addr        Size        Decimal Bytes (Attributes)
--------------------------------        ----        ----        ------- ----- ------------
.  .ABS.                            00000000    00000000 =           0. bytes (ABS,CON)

      Value  Global                              Global Defined In Module
      -----  --------------------------------   ------------------------
     00000000  s__HRAM12                       
     00000001  ___bank_VM_SGB                     vm_sgb
     00000001  ___bank_VM_SIO                     vm_sio
     00000001  ___bank_scene_14_sprites           scene_14_sprites
     00000001  ___bank_song_blue_ocean_remix_Da   song_blue_ocean_remix_Data
     00000001  b_ui_draw_frame                    ui
     00000001  b_ui_draw_text_buffer_char         ui
     00000001  b_ui_init                          ui
     00000001  b_ui_load_tiles                    ui
     00000001  b_ui_run_menu                      ui
     00000001  b_ui_run_modal                     ui
     00000001  b_ui_set_start_tile                ui
     00000001  b_vm_sio_exchange                  vm_sio
     00000001  b_vm_sio_set_mode                  vm_sio
     00000001  l__GSFINAL                      
     00000001  l__HEADER0                      
     00000001  l__HEADER5                      
     00000001  l__HEADERa                      
     00000001  l__HEADERb                      
     00000001  l__HEADERc                      
     00000001  l__HEADERe                      
     00000001  l__HEADERf                      
     00000002  ___bank_ACTOR                      actor
     00000002  ___bank_VM_ACTOR                   vm_actor
     00000002  ___bank_scene_3_actors             scene_3_actors
     00000002  ___bank_sound_gbfx2_sav_00         sound_gbfx2_sav
     00000002  ___bank_sound_gbfx2_sav_01         sound_gbfx2_sav
     00000002  ___bank_sound_gbfx2_sav_02         sound_gbfx2_sav
     00000002  ___bank_sound_gbfx2_sav_03         sound_gbfx2_sav
     00000002  ___bank_sound_gbfx2_sav_04         sound_gbfx2_sav
     00000002  ___bank_sound_gbfx2_sav_05         sound_gbfx2_sav
     00000002  ___bank_sound_gbfx2_sav_06         sound_gbfx2_sav
     00000002  ___bank_sound_gbfx2_sav_07         sound_gbfx2_sav
     00000002  ___bank_sound_gbfx2_sav_08         sound_gbfx2_sav
     00000002  ___bank_sound_gbfx2_sav_09         sound_gbfx2_sav
     00000002  ___bank_sound_gbfx2_sav_10         sound_gbfx2_sav
     00000002  ___bank_sound_gbfx2_sav_11         sound_gbfx2_sav
     00000002  ___bank_sound_gbfx2_sav_12         sound_gbfx2_sav
     00000002  ___bank_sound_gbfx2_sav_13         sound_gbfx2_sav
     00000002  ___bank_sound_gbfx2_sav_14         sound_gbfx2_sav
     00000002  ___bank_sound_gbfx2_sav_15         sound_gbfx2_sav
     00000002  ___bank_sound_gbfx2_sav_16         sound_gbfx2_sav
     00000002  ___bank_sound_gbfx2_sav_17         sound_gbfx2_sav
     00000002  ___bank_sound_gbfx2_sav_18         sound_gbfx2_sav
     00000002  ___bank_sound_gbfx2_sav_19         sound_gbfx2_sav
     00000002  ___bank_sound_gbfx2_sav_20         sound_gbfx2_sav
     00000002  ___bank_sound_gbfx2_sav_21         sound_gbfx2_sav
     00000002  ___bank_sound_gbfx2_sav_22         sound_gbfx2_sav
     00000002  ___bank_sound_gbfx2_sav_23         sound_gbfx2_sav
     00000002  ___bank_sound_gbfx2_sav_24         sound_gbfx2_sav
     00000002  ___bank_sound_gbfx2_sav_25         sound_gbfx2_sav
ASxxxx Linker V03.00/V05.40 + sdld,  page 3.
Hexadecimal  [32-Bits]

Area                                    Addr        Size        Decimal Bytes (Attributes)
--------------------------------        ----        ----        ------- ----- ------------
.  .ABS.                            00000000    00000000 =           0. bytes (ABS,CON)

      Value  Global                              Global Defined In Module
      -----  --------------------------------   ------------------------
     00000002  ___bank_sound_gbfx2_sav_26         sound_gbfx2_sav
     00000002  ___bank_sound_gbfx2_sav_27         sound_gbfx2_sav
     00000002  ___bank_sound_gbfx2_sav_28         sound_gbfx2_sav
     00000002  ___bank_sound_gbfx2_sav_29         sound_gbfx2_sav
     00000002  ___bank_sound_gbfx2_sav_30         sound_gbfx2_sav
     00000002  ___bank_sound_gbfx2_sav_31         sound_gbfx2_sav
     00000002  ___bank_sound_gbfx2_sav_32         sound_gbfx2_sav
     00000002  ___bank_sound_gbfx2_sav_33         sound_gbfx2_sav
     00000002  ___bank_sound_gbfx2_sav_34         sound_gbfx2_sav
     00000002  ___bank_sound_gbfx2_sav_35         sound_gbfx2_sav
     00000002  ___bank_sound_gbfx2_sav_36         sound_gbfx2_sav
     00000002  ___bank_sound_gbfx2_sav_37         sound_gbfx2_sav
     00000002  ___bank_sound_gbfx2_sav_38         sound_gbfx2_sav
     00000002  ___bank_sound_gbfx2_sav_39         sound_gbfx2_sav
     00000002  ___bank_sound_gbfx2_sav_40         sound_gbfx2_sav
     00000002  ___bank_sound_gbfx2_sav_41         sound_gbfx2_sav
     00000002  ___bank_sound_gbfx2_sav_42         sound_gbfx2_sav
     00000002  ___bank_sound_gbfx2_sav_43         sound_gbfx2_sav
     00000002  ___bank_sound_gbfx2_sav_44         sound_gbfx2_sav
     00000002  ___bank_sound_gbfx2_sav_45         sound_gbfx2_sav
     00000002  ___bank_sound_gbfx2_sav_46         sound_gbfx2_sav
     00000002  ___bank_sound_gbfx2_sav_47         sound_gbfx2_sav
     00000002  ___bank_sound_gbfx2_sav_48         sound_gbfx2_sav
     00000002  ___bank_sound_gbfx2_sav_49         sound_gbfx2_sav
     00000002  ___bank_sound_gbfx2_sav_50         sound_gbfx2_sav
     00000002  ___bank_sound_gbfx2_sav_51         sound_gbfx2_sav
     00000002  ___bank_sound_gbfx2_sav_52         sound_gbfx2_sav
     00000002  ___bank_sound_gbfx2_sav_53         sound_gbfx2_sav
     00000002  ___bank_sound_gbfx2_sav_54         sound_gbfx2_sav
     00000002  ___bank_sound_gbfx2_sav_55         sound_gbfx2_sav
     00000002  ___bank_sound_gbfx2_sav_56         sound_gbfx2_sav
     00000002  ___bank_sound_gbfx2_sav_57         sound_gbfx2_sav
     00000002  ___bank_sound_gbfx2_sav_58         sound_gbfx2_sav
     00000002  ___bank_sound_gbfx2_sav_59         sound_gbfx2_sav
     00000002  ___bank_trigger_0_interact         trigger_0_interact
     00000002  ___mute_mask_sound_gbfx2_sav_00    sound_gbfx2_sav
     00000002  ___mute_mask_sound_gbfx2_sav_01    sound_gbfx2_sav
     00000002  ___mute_mask_sound_gbfx2_sav_02    sound_gbfx2_sav
     00000002  ___mute_mask_sound_gbfx2_sav_03    sound_gbfx2_sav
     00000002  ___mute_mask_sound_gbfx2_sav_04    sound_gbfx2_sav
     00000002  ___mute_mask_sound_gbfx2_sav_05    sound_gbfx2_sav
     00000002  ___mute_mask_sound_gbfx2_sav_06    sound_gbfx2_sav
     00000002  ___mute_mask_sound_gbfx2_sav_07    sound_gbfx2_sav
     00000002  ___mute_mask_sound_gbfx2_sav_08    sound_gbfx2_sav
     00000002  ___mute_mask_sound_gbfx2_sav_09    sound_gbfx2_sav
     00000002  ___mute_mask_sound_gbfx2_sav_10    sound_gbfx2_sav
     00000002  ___mute_mask_sound_gbfx2_sav_11    sound_gbfx2_sav
     00000002  ___mute_mask_sound_gbfx2_sav_12    sound_gbfx2_sav
     00000002  ___mute_mask_sound_gbfx2_sav_13    sound_gbfx2_sav
     00000002  ___mute_mask_sound_gbfx2_sav_14    sound_gbfx2_sav
     00000002  ___mute_mask_sound_gbfx2_sav_15    sound_gbfx2_sav
ASxxxx Linker V03.00/V05.40 + sdld,  page 4.
Hexadecimal  [32-Bits]

Area                                    Addr        Size        Decimal Bytes (Attributes)
--------------------------------        ----        ----        ------- ----- ------------
.  .ABS.                            00000000    00000000 =           0. bytes (ABS,CON)

      Value  Global                              Global Defined In Module
      -----  --------------------------------   ------------------------
     00000002  ___mute_mask_sound_gbfx2_sav_48    sound_gbfx2_sav
     00000002  ___mute_mask_sound_gbfx2_sav_49    sound_gbfx2_sav
     00000002  ___mute_mask_sound_gbfx2_sav_50    sound_gbfx2_sav
     00000002  ___mute_mask_sound_gbfx2_sav_51    sound_gbfx2_sav
     00000002  ___mute_mask_sound_gbfx2_sav_52    sound_gbfx2_sav
     00000002  ___mute_mask_sound_gbfx2_sav_53    sound_gbfx2_sav
     00000002  ___mute_mask_sound_gbfx2_sav_54    sound_gbfx2_sav
     00000002  ___mute_mask_sound_gbfx2_sav_55    sound_gbfx2_sav
     00000002  ___mute_mask_sound_gbfx2_sav_56    sound_gbfx2_sav
     00000002  ___mute_mask_sound_gbfx2_sav_57    sound_gbfx2_sav
     00000002  ___mute_mask_sound_gbfx2_sav_58    sound_gbfx2_sav
     00000002  ___mute_mask_sound_gbfx2_sav_59    sound_gbfx2_sav
     00000002  ___mute_mask_sound_gbfx_sav_00     sound_gbfx_sav
     00000002  ___mute_mask_sound_gbfx_sav_01     sound_gbfx_sav
     00000002  ___mute_mask_sound_gbfx_sav_02     sound_gbfx_sav
     00000002  ___mute_mask_sound_gbfx_sav_03     sound_gbfx_sav
     00000002  ___mute_mask_sound_gbfx_sav_04     sound_gbfx_sav
     00000002  ___mute_mask_sound_gbfx_sav_05     sound_gbfx_sav
     00000002  ___mute_mask_sound_gbfx_sav_06     sound_gbfx_sav
     00000002  ___mute_mask_sound_gbfx_sav_07     sound_gbfx_sav
     00000002  ___mute_mask_sound_gbfx_sav_08     sound_gbfx_sav
     00000002  ___mute_mask_sound_gbfx_sav_09     sound_gbfx_sav
     00000002  ___mute_mask_sound_gbfx_sav_10     sound_gbfx_sav
     00000002  ___mute_mask_sound_gbfx_sav_11     sound_gbfx_sav
     00000002  ___mute_mask_sound_gbfx_sav_12     sound_gbfx_sav
     00000002  ___mute_mask_sound_gbfx_sav_13     sound_gbfx_sav
     00000002  ___mute_mask_sound_gbfx_sav_14     sound_gbfx_sav
     00000002  ___mute_mask_sound_gbfx_sav_15     sound_gbfx_sav
     00000002  ___mute_mask_sound_gbfx_sav_32     sound_gbfx_sav
     00000002  ___mute_mask_sound_gbfx_sav_33     sound_gbfx_sav
     00000002  ___mute_mask_sound_gbfx_sav_34     sound_gbfx_sav
     00000002  ___mute_mask_sound_gbfx_sav_35     sound_gbfx_sav
     00000002  ___mute_mask_sound_gbfx_sav_36     sound_gbfx_sav
     00000002  ___mute_mask_sound_gbfx_sav_37     sound_gbfx_sav
     00000002  ___mute_mask_sound_gbfx_sav_38     sound_gbfx_sav
     00000002  ___mute_mask_sound_gbfx_sav_39     sound_gbfx_sav
     00000002  ___mute_mask_sound_gbfx_sav_48     sound_gbfx_sav
     00000002  b_activate_actor                   actor
     00000002  b_activate_actors_in_col           actor
     00000002  b_activate_actors_in_row           actor
     00000002  b_actor_at_tile                    actor
     00000002  b_actor_get_frame_offset           actor
     00000002  b_actor_in_front_of_player         actor
     00000002  b_actor_overlapping_bb             actor
     00000002  b_actor_overlapping_player         actor
     00000002  b_actor_set_anim_idle              actor
     00000002  b_actor_set_anim_moving            actor
     00000002  b_actor_set_dir                    actor
     00000002  b_actor_set_frame_offset           actor
     00000002  b_actor_set_frames                 actor
     00000002  b_actors_handle_player_collision   actor
ASxxxx Linker V03.00/V05.40 + sdld,  page 5.
Hexadecimal  [32-Bits]

Area                                    Addr        Size        Decimal Bytes (Attributes)
--------------------------------        ----        ----        ------- ----- ------------
.  .ABS.                            00000000    00000000 =           0. bytes (ABS,CON)

      Value  Global                              Global Defined In Module
      -----  --------------------------------   ------------------------
     00000002  b_actors_init                      actor
     00000002  b_check_collision_in_direction     actor
     00000002  b_deactivate_actor                 actor
     00000002  b_player_init                      actor
     00000002  b_vm_actor_activate                vm_actor
     00000002  b_vm_actor_begin_update            vm_actor
     00000002  b_vm_actor_deactivate              vm_actor
     00000002  b_vm_actor_emote                   vm_actor
     00000002  b_vm_actor_get_angle               vm_actor
     00000002  b_vm_actor_get_anim_frame          vm_actor
     00000002  b_vm_actor_get_dir                 vm_actor
     00000002  b_vm_actor_get_pos                 vm_actor
     00000002  b_vm_actor_move_cancel             vm_actor
     00000002  b_vm_actor_move_to                 vm_actor
     00000002  b_vm_actor_replace_tile            vm_actor
     00000002  b_vm_actor_set_anim                vm_actor
     00000002  b_vm_actor_set_anim_frame          vm_actor
     00000002  b_vm_actor_set_anim_set            vm_actor
     00000002  b_vm_actor_set_anim_tick           vm_actor
     00000002  b_vm_actor_set_bounds              vm_actor
     00000002  b_vm_actor_set_dir                 vm_actor
     00000002  b_vm_actor_set_flags               vm_actor
     00000002  b_vm_actor_set_move_speed          vm_actor
     00000002  b_vm_actor_set_pos                 vm_actor
     00000002  b_vm_actor_set_spritesheet         vm_actor
     00000002  b_vm_actor_set_spritesheet_by_re   vm_actor
     00000002  b_vm_actor_terminate_update        vm_actor
     00000002  l__HEADER10                     
     00000002  l__HEADER6                      
     00000002  l__HEADERd                      
     00000003  ___bank_VM_MAIN                    vm
     00000003  ___bank_font_gbs_mono              font_gbs_mono
     00000003  ___bank_frame_image                frame_image
     00000003  ___bank_song_bs_free_level_start   song_bs_free_level_start_Dat
     00000003  ___bank_sound_gbfx_sav_00          sound_gbfx_sav
     00000003  ___bank_sound_gbfx_sav_01          sound_gbfx_sav
     00000003  ___bank_sound_gbfx_sav_02          sound_gbfx_sav
     00000003  ___bank_sound_gbfx_sav_03          sound_gbfx_sav
     00000003  ___bank_sound_gbfx_sav_04          sound_gbfx_sav
     00000003  ___bank_sound_gbfx_sav_05          sound_gbfx_sav
     00000003  ___bank_sound_gbfx_sav_06          sound_gbfx_sav
     00000003  ___bank_sound_gbfx_sav_07          sound_gbfx_sav
     00000003  ___bank_sound_gbfx_sav_08          sound_gbfx_sav
     00000003  ___bank_sound_gbfx_sav_09          sound_gbfx_sav
     00000003  ___bank_sound_gbfx_sav_10          sound_gbfx_sav
     00000003  ___bank_sound_gbfx_sav_11          sound_gbfx_sav
     00000003  ___bank_sound_gbfx_sav_12          sound_gbfx_sav
     00000003  ___bank_sound_gbfx_sav_13          sound_gbfx_sav
     00000003  ___bank_sound_gbfx_sav_14          sound_gbfx_sav
     00000003  ___bank_sound_gbfx_sav_15          sound_gbfx_sav
     00000003  ___bank_sound_gbfx_sav_16          sound_gbfx_sav
ASxxxx Linker V03.00/V05.40 + sdld,  page 6.
Hexadecimal  [32-Bits]

Area                                    Addr        Size        Decimal Bytes (Attributes)
--------------------------------        ----        ----        ------- ----- ------------
.  .ABS.                            00000000    00000000 =           0. bytes (ABS,CON)

      Value  Global                              Global Defined In Module
      -----  --------------------------------   ------------------------
     00000003  ___bank_sound_gbfx_sav_17          sound_gbfx_sav
     00000003  ___bank_sound_gbfx_sav_18          sound_gbfx_sav
     00000003  ___bank_sound_gbfx_sav_19          sound_gbfx_sav
     00000003  ___bank_sound_gbfx_sav_20          sound_gbfx_sav
     00000003  ___bank_sound_gbfx_sav_21          sound_gbfx_sav
     00000003  ___bank_sound_gbfx_sav_22          sound_gbfx_sav
     00000003  ___bank_sound_gbfx_sav_23          sound_gbfx_sav
     00000003  ___bank_sound_gbfx_sav_24          sound_gbfx_sav
     00000003  ___bank_sound_gbfx_sav_25          sound_gbfx_sav
     00000003  ___bank_sound_gbfx_sav_26          sound_gbfx_sav
     00000003  ___bank_sound_gbfx_sav_27          sound_gbfx_sav
     00000003  ___bank_sound_gbfx_sav_28          sound_gbfx_sav
     00000003  ___bank_sound_gbfx_sav_29          sound_gbfx_sav
     00000003  ___bank_sound_gbfx_sav_30          sound_gbfx_sav
     00000003  ___bank_sound_gbfx_sav_31          sound_gbfx_sav
     00000003  ___bank_sound_gbfx_sav_32          sound_gbfx_sav
     00000003  ___bank_sound_gbfx_sav_33          sound_gbfx_sav
     00000003  ___bank_sound_gbfx_sav_34          sound_gbfx_sav
     00000003  ___bank_sound_gbfx_sav_35          sound_gbfx_sav
     00000003  ___bank_sound_gbfx_sav_36          sound_gbfx_sav
     00000003  ___bank_sound_gbfx_sav_37          sound_gbfx_sav
     00000003  ___bank_sound_gbfx_sav_38          sound_gbfx_sav
     00000003  ___bank_sound_gbfx_sav_39          sound_gbfx_sav
     00000003  ___bank_sound_gbfx_sav_40          sound_gbfx_sav
     00000003  ___bank_sound_gbfx_sav_41          sound_gbfx_sav
     00000003  ___bank_sound_gbfx_sav_42          sound_gbfx_sav
     00000003  ___bank_sound_gbfx_sav_43          sound_gbfx_sav
     00000003  ___bank_sound_gbfx_sav_44          sound_gbfx_sav
     00000003  ___bank_sound_gbfx_sav_45          sound_gbfx_sav
     00000003  ___bank_sound_gbfx_sav_46          sound_gbfx_sav
     00000003  ___bank_sound_gbfx_sav_47          sound_gbfx_sav
     00000003  ___bank_sound_gbfx_sav_48          sound_gbfx_sav
     00000003  b_script_detach_hthread            vm
     00000003  b_script_execute                   vm
     00000003  b_script_runner_init               vm
     00000003  b_script_terminate                 vm
     00000003  b_scroll_init                      scroll
     00000003  b_scroll_repaint                   scroll
     00000003  b_scroll_reset                     scroll
     00000003  b_scroll_update                    scroll
     00000003  b_vm_call                          vm
     00000003  b_vm_call_far                      vm
     00000003  b_vm_get_indirect                  vm
     00000003  b_vm_get_tlocal                    vm
     00000003  b_vm_idle                          vm
     00000003  b_vm_if                            vm
     00000003  b_vm_if_const                      vm
     00000003  b_vm_init_rng                      vm
     00000003  b_vm_invoke                        vm
     00000003  b_vm_join                          vm
     00000003  b_vm_jump                          vm
ASxxxx Linker V03.00/V05.40 + sdld,  page 7.
Hexadecimal  [32-Bits]

Area                                    Addr        Size        Decimal Bytes (Attributes)
--------------------------------        ----        ----        ------- ----- ------------
.  .ABS.                            00000000    00000000 =           0. bytes (ABS,CON)

      Value  Global                              Global Defined In Module
      -----  --------------------------------   ------------------------
     00000003  b_vm_lock                          vm
     00000003  b_vm_loop                          vm
     00000003  b_vm_memcpy                        vm
     00000003  b_vm_memset                        vm
     00000003  b_vm_poll_loaded                   vm
     00000003  b_vm_pop                           vm
     00000003  b_vm_push                          vm
     00000003  b_vm_push_reference                vm
     00000003  b_vm_push_value                    vm
     00000003  b_vm_push_value_ind                vm
     00000003  b_vm_raise                         vm
     00000003  b_vm_rand                          vm
     00000003  b_vm_reserve                       vm
     00000003  b_vm_ret                           vm
     00000003  b_vm_ret_far                       vm
     00000003  b_vm_set                           vm
     00000003  b_vm_set_const                     vm
     00000003  b_vm_set_indirect                  vm
     00000003  b_vm_terminate                     vm
     00000003  b_vm_test_terminate                vm
     00000003  b_vm_unlock                        vm
     00000003  b_wait_frames                      vm
     00000003  l__HEADER9                      
     00000003  l__HEADER_LCD0                  
     00000003  l__HRAM12                       
     00000004  ___bank_VM_GAMEBOY                 vm_gameboy
     00000004  ___bank_VM_UI                      vm_ui
     00000004  ___bank_bg_logo_gameoff2024_tile   bg_logo_gameoff2024_tileset
     00000004  ___bank_bg_scene_04_tileset        bg_scene_04_tileset
     00000004  ___bank_bg_scene_07_tileset        bg_scene_07_tileset
     00000004  ___bank_bg_scene_08_tileset        bg_scene_08_tileset
     00000004  ___bank_bg_scene_title_tileset     bg_scene_title_tileset
     00000004  ___bank_sprite_static_furniture_   sprite_static_furniture_v1_t
     00000004  __start_save                    
     00000004  b_do_load_palette                  data_manager
     00000004  b_fade_applypalettechange          fade_manager
     00000004  b_fade_in                          fade_manager
     00000004  b_fade_in_modal                    fade_manager
     00000004  b_fade_init                        fade_manager
     00000004  b_fade_out                         fade_manager
     00000004  b_fade_out_modal                   fade_manager
     00000004  b_fade_setspeed                    fade_manager
     00000004  b_fade_update                      fade_manager
     00000004  b_load_background                  data_manager
     00000004  b_load_bkg_tileset                 data_manager
     00000004  b_load_bounds                      data_manager
     00000004  b_load_emote                       data_manager
     00000004  b_load_init                        data_manager
     00000004  b_load_player                      data_manager
     00000004  b_load_scene                       data_manager
     00000004  b_load_sprite                      data_manager
ASxxxx Linker V03.00/V05.40 + sdld,  page 8.
Hexadecimal  [32-Bits]

Area                                    Addr        Size        Decimal Bytes (Attributes)
--------------------------------        ----        ----        ------- ----- ------------
.  .ABS.                            00000000    00000000 =           0. bytes (ABS,CON)

      Value  Global                              Global Defined In Module
      -----  --------------------------------   ------------------------
     00000004  b_topdown_init                     topdown
     00000004  b_topdown_update                   topdown
     00000004  b_vm_choice                        vm_ui
     00000004  b_vm_context_prepare               vm_gameboy
     00000004  b_vm_display_text                  vm_ui
     00000004  b_vm_fade                          vm_gameboy
     00000004  b_vm_get_tile_xy                   vm_gameboy
     00000004  b_vm_input_attach                  vm_gameboy
     00000004  b_vm_input_detach                  vm_gameboy
     00000004  b_vm_input_get                     vm_gameboy
     00000004  b_vm_input_wait                    vm_gameboy
     00000004  b_vm_load_tileset                  vm_gameboy
     00000004  b_vm_overlay_clear                 vm_ui
     00000004  b_vm_overlay_move_to               vm_ui
     00000004  b_vm_overlay_scroll                vm_ui
     00000004  b_vm_overlay_set_map               vm_ui
     00000004  b_vm_overlay_set_scroll            vm_ui
     00000004  b_vm_overlay_set_submap            vm_ui
     00000004  b_vm_overlay_set_submap_ex         vm_ui
     00000004  b_vm_overlay_setpos                vm_ui
     00000004  b_vm_overlay_show                  vm_ui
     00000004  b_vm_overlay_wait                  vm_ui
     00000004  b_vm_poll                          vm_gameboy
     00000004  b_vm_replace_tile                  vm_gameboy
     00000004  b_vm_replace_tile_xy               vm_gameboy
     00000004  b_vm_rumble                        vm_gameboy
     00000004  b_vm_set_font                      vm_ui
     00000004  b_vm_set_sprite_mode               vm_gameboy
     00000004  b_vm_set_sprites_visible           vm_gameboy
     00000004  b_vm_set_text_sound                vm_ui
     00000004  b_vm_switch_text_layer             vm_ui
     00000004  b_vm_timer_prepare                 vm_gameboy
     00000004  b_vm_timer_reset                   vm_gameboy
     00000004  b_vm_timer_set                     vm_gameboy
     00000004  b_vm_timer_stop                    vm_gameboy
     00000004  l__CRASH_HEADER1                
     00000004  l__HEADER_SIO0                  
     00000004  l__HEADER_TIMER0                
     00000005  ___bank_VM_CAMERA                  vm_camera
     00000005  ___bank_bg_scene_01_tileset        bg_scene_01_tileset
     00000005  ___bank_bg_scene_02_tileset        bg_scene_02_tileset
     00000005  ___bank_bg_scene_03_tileset        bg_scene_03_tileset
     00000005  ___bank_bg_scene_04_tilemap        bg_scene_04_tilemap
     00000005  ___bank_bg_scene_05_tileset        bg_scene_05_tileset
     00000005  ___bank_bg_scene_06_tileset        bg_scene_06_tileset
     00000005  ___bank_bg_scenewelcome_tileset    bg_scenewelcome_tileset
     00000005  ___bank_scene_10_sprites           scene_10_sprites
     00000005  ___bank_scene_7_actors             scene_7_actors
     00000005  ___bank_scene_7_collisions         scene_7_collisions
     00000005  ___bank_sprite_actor_animated_ti   sprite_actor_animated_tilese
     00000005  ___bank_trigger_34_interact        trigger_34_interact
ASxxxx Linker V03.00/V05.40 + sdld,  page 9.
Hexadecimal  [32-Bits]

Area                                    Addr        Size        Decimal Bytes (Attributes)
--------------------------------        ----        ----        ------- ----- ------------
.  .ABS.                            00000000    00000000 =           0. bytes (ABS,CON)

      Value  Global                              Global Defined In Module
      -----  --------------------------------   ------------------------
     00000005  b___HandleCrash_banked             
     00000005  b_atan2                            math_atan2
     00000005  b_camera_shake_frames              vm_camera
     00000005  b_core_reset                       core
     00000005  b_core_run                         core
     00000005  b_data_clear                       load_save
     00000005  b_data_init                        load_save
     00000005  b_data_load                        load_save
     00000005  b_data_peek                        load_save
     00000005  b_data_save                        load_save
     00000005  b_gbprinter_detect                 gbprinter
     00000005  b_gbprinter_print_overlay          gbprinter
     00000005  b_projectile_launch                projectiles
     00000005  b_projectiles_init                 projectiles
     00000005  b_trigger_activate_at              trigger
     00000005  b_trigger_activate_at_intersecti   trigger
     00000005  b_trigger_at_intersection          trigger
     00000005  b_trigger_at_tile                  trigger
     00000005  b_trigger_interact                 trigger
     00000005  b_trigger_reset                    trigger
     00000005  b_vm_camera_move_to                vm_camera
     00000005  b_vm_camera_set_pos                vm_camera
     00000005  l__CRASH_HEADER0                
     00000005  l__HEADER1                      
     00000006  ___bank_VM_MATH                    vm_math
     00000006  ___bank_VM_MUSIC                   vm_music
     00000006  ___bank_VM_PALETTE                 vm_palette
     00000006  ___bank_VM_PROJECTILE              vm_projectiles
     00000006  ___bank_VM_RTC                     vm_rtc
     00000006  ___bank_bg_logo_gameoff2024_tile   bg_logo_gameoff2024_tilemap
     00000006  ___bank_bg_scene_01_tilemap        bg_scene_01_tilemap
     00000006  ___bank_bg_scene_02_tilemap        bg_scene_02_tilemap
     00000006  ___bank_bg_scene_03_tilemap        bg_scene_03_tilemap
     00000006  ___bank_bg_scene_05_tilemap        bg_scene_05_tilemap
     00000006  ___bank_bg_scene_06_tilemap        bg_scene_06_tilemap
     00000006  ___bank_bg_scene_07_tilemap        bg_scene_07_tilemap
     00000006  ___bank_bg_scene_08_tilemap        bg_scene_08_tilemap
     00000006  ___bank_bg_scene_09_tilemap        bg_scene_09_tilemap
     00000006  ___bank_bg_scene_09_tileset        bg_scene_09_tileset
     00000006  ___bank_bg_scene_title_tilemap     bg_scene_title_tilemap
     00000006  ___bank_bg_scenewelcome_tilemap    bg_scenewelcome_tilemap
     00000006  ___bank_scene_0_actors             scene_0_actors
     00000006  ___bank_scene_0_collisions         scene_0_collisions
     00000006  ___bank_scene_10_actors            scene_10_actors
     00000006  ___bank_scene_10_collisions        scene_10_collisions
     00000006  ___bank_scene_11_actors            scene_11_actors
     00000006  ___bank_scene_11_collisions        scene_11_collisions
     00000006  ___bank_scene_12_actors            scene_12_actors
     00000006  ___bank_scene_12_collisions        scene_12_collisions
     00000006  ___bank_scene_13_actors            scene_13_actors
     00000006  ___bank_scene_13_collisions        scene_13_collisions
ASxxxx Linker V03.00/V05.40 + sdld,  page 10.
Hexadecimal  [32-Bits]

Area                                    Addr        Size        Decimal Bytes (Attributes)
--------------------------------        ----        ----        ------- ----- ------------
.  .ABS.                            00000000    00000000 =           0. bytes (ABS,CON)

      Value  Global                              Global Defined In Module
      -----  --------------------------------   ------------------------
     00000006  ___bank_scene_14_actors            scene_14_actors
     00000006  ___bank_scene_14_collisions        scene_14_collisions
     00000006  ___bank_scene_15_actors            scene_15_actors
     00000006  ___bank_scene_15_collisions        scene_15_collisions
     00000006  ___bank_scene_16_collisions        scene_16_collisions
     00000006  ___bank_scene_17_collisions        scene_17_collisions
     00000006  ___bank_scene_1_collisions         scene_1_collisions
     00000006  ___bank_scene_2_collisions         scene_2_collisions
     00000006  ___bank_scene_3_collisions         scene_3_collisions
     00000006  ___bank_scene_4_collisions         scene_4_collisions
     00000006  ___bank_scene_5_collisions         scene_5_collisions
     00000006  ___bank_scene_6_actors             scene_6_actors
     00000006  ___bank_scene_6_collisions         scene_6_collisions
     00000006  ___bank_scene_7_init               scene_7_init
     00000006  ___bank_scene_9_collisions         scene_9_collisions
     00000006  ___bank_sprite_actor_animated_ca   sprite_actor_animated_car
     00000006  ___bank_sprite_actor_animated_ca   sprite_actor_animated_car_ti
     00000006  ___bank_trigger_21_interact        trigger_21_interact
     00000006  b_erase_flash                      
     00000006  b_itoa_fmt                         vm_ui_a
     00000006  b_music_events_poll                music_manager
     00000006  b_music_init_driver                music_manager
     00000006  b_music_init_events                music_manager
     00000006  b_save_sram_banks                  
     00000006  b_set_sgb_border                   sgb_border
     00000006  b_vm_cos_scale                     vm_math
     00000006  b_vm_load_palette                  vm_palette
     00000006  b_vm_music_mute                    vm_music
     00000006  b_vm_music_play                    vm_music
     00000006  b_vm_music_routine                 vm_music
     00000006  b_vm_music_setpos                  vm_music
     00000006  b_vm_music_stop                    vm_music
     00000006  b_vm_projectile_launch             vm_projectiles
     00000006  b_vm_projectile_load_type          vm_projectiles
     00000006  b_vm_rtc_get                       vm_rtc
     00000006  b_vm_rtc_latch                     vm_rtc
     00000006  b_vm_rtc_set                       vm_rtc
     00000006  b_vm_rtc_start                     vm_rtc
     00000006  b_vm_sfx_play                      vm_music
     00000006  b_vm_sin_scale                     vm_math
     00000006  b_vm_sound_mastervol               vm_music
     00000006  l__HEADER8                      
     00000007  ___bank_VM_GBPRINTER               vm_gbprinter
     00000007  ___bank_VM_LOAD_SAVE               vm_load_save
     00000007  ___bank_VM_SCENE                   vm_scene
     00000007  ___bank_actor_0_interact           actor_0_interact
     00000007  ___bank_actor_1_interact           actor_1_interact
     00000007  ___bank_actor_21_interact          actor_21_interact
     00000007  ___bank_actor_22_interact          actor_22_interact
     00000007  ___bank_actor_23_interact          actor_23_interact
     00000007  ___bank_actor_25_interact          actor_25_interact
ASxxxx Linker V03.00/V05.40 + sdld,  page 11.
Hexadecimal  [32-Bits]

Area                                    Addr        Size        Decimal Bytes (Attributes)
--------------------------------        ----        ----        ------- ----- ------------
.  .ABS.                            00000000    00000000 =           0. bytes (ABS,CON)

      Value  Global                              Global Defined In Module
      -----  --------------------------------   ------------------------
     00000007  ___bank_actor_26_interact          actor_26_interact
     00000007  ___bank_actor_27_interact          actor_27_interact
     00000007  ___bank_actor_28_interact          actor_28_interact
     00000007  ___bank_actor_29_interact          actor_29_interact
     00000007  ___bank_actor_2_interact           actor_2_interact
     00000007  ___bank_actor_30_interact          actor_30_interact
     00000007  ___bank_actor_32_interact          actor_32_interact
     00000007  ___bank_actor_33_interact          actor_33_interact
     00000007  ___bank_actor_34_interact          actor_34_interact
     00000007  ___bank_actor_35_interact          actor_35_interact
     00000007  ___bank_actor_38_interact          actor_38_interact
     00000007  ___bank_actor_39_interact          actor_39_interact
     00000007  ___bank_actor_3_interact           actor_3_interact
     00000007  ___bank_actor_40_interact          actor_40_interact
     00000007  ___bank_actor_41_interact          actor_41_interact
     00000007  ___bank_actor_42_interact          actor_42_interact
     00000007  ___bank_actor_44_interact          actor_44_interact
     00000007  ___bank_actor_45_interact          actor_45_interact
     00000007  ___bank_actor_47_interact          actor_47_interact
     00000007  ___bank_actor_48_interact          actor_48_interact
     00000007  ___bank_actor_49_interact          actor_49_interact
     00000007  ___bank_actor_4_interact           actor_4_interact
     00000007  ___bank_actor_50_interact          actor_50_interact
     00000007  ___bank_actor_51_interact          actor_51_interact
     00000007  ___bank_actor_52_interact          actor_52_interact
     00000007  ___bank_actor_53_interact          actor_53_interact
     00000007  ___bank_actor_56_interact          actor_56_interact
     00000007  ___bank_actor_57_interact          actor_57_interact
     00000007  ___bank_actor_59_interact          actor_59_interact
     00000007  ___bank_actor_61_interact          actor_61_interact
     00000007  ___bank_actor_66_interact          actor_66_interact
     00000007  ___bank_actor_67_interact          actor_67_interact
     00000007  ___bank_actor_68_interact          actor_68_interact
     00000007  ___bank_actor_69_interact          actor_69_interact
     00000007  ___bank_actor_6_interact           actor_6_interact
     00000007  ___bank_actor_7_interact           actor_7_interact
     00000007  ___bank_actor_8_interact           actor_8_interact
     00000007  ___bank_actor_9_interact           actor_9_interact
     00000007  ___bank_bg_logo_gameoff2024        bg_logo_gameoff2024
     00000007  ___bank_bg_scene_01                bg_scene_01
     00000007  ___bank_bg_scene_02                bg_scene_02
     00000007  ___bank_bg_scene_03                bg_scene_03
     00000007  ___bank_bg_scene_04                bg_scene_04
     00000007  ___bank_bg_scene_05                bg_scene_05
     00000007  ___bank_bg_scene_06                bg_scene_06
     00000007  ___bank_bg_scene_07                bg_scene_07
     00000007  ___bank_bg_scene_08                bg_scene_08
     00000007  ___bank_bg_scene_09                bg_scene_09
     00000007  ___bank_bg_scene_title             bg_scene_title
     00000007  ___bank_bg_scenewelcome            bg_scenewelcome
     00000007  ___bank_bootstrap_script           
ASxxxx Linker V03.00/V05.40 + sdld,  page 12.
Hexadecimal  [32-Bits]

Area                                    Addr        Size        Decimal Bytes (Attributes)
--------------------------------        ----        ----        ------- ----- ------------
.  .ABS.                            00000000    00000000 =           0. bytes (ABS,CON)

      Value  Global                              Global Defined In Module
      -----  --------------------------------   ------------------------
     00000007  ___bank_cursor_image               cursor_image
     00000007  ___bank_palette_0                  palette_0
     00000007  ___bank_palette_1                  palette_1
     00000007  ___bank_scene_0                    scene_0
     00000007  ___bank_scene_0_init               scene_0_init
     00000007  ___bank_scene_0_sprites            scene_0_sprites
     00000007  ___bank_scene_0_triggers           scene_0_triggers
     00000007  ___bank_scene_1                    scene_1
     00000007  ___bank_scene_10                   scene_10
     00000007  ___bank_scene_10_init              scene_10_init
     00000007  ___bank_scene_10_triggers          scene_10_triggers
     00000007  ___bank_scene_11                   scene_11
     00000007  ___bank_scene_11_init              scene_11_init
     00000007  ___bank_scene_11_sprites           scene_11_sprites
     00000007  ___bank_scene_11_triggers          scene_11_triggers
     00000007  ___bank_scene_12                   scene_12
     00000007  ___bank_scene_12_init              scene_12_init
     00000007  ___bank_scene_12_sprites           scene_12_sprites
     00000007  ___bank_scene_12_triggers          scene_12_triggers
     00000007  ___bank_scene_13                   scene_13
     00000007  ___bank_scene_13_init              scene_13_init
     00000007  ___bank_scene_13_sprites           scene_13_sprites
     00000007  ___bank_scene_13_triggers          scene_13_triggers
     00000007  ___bank_scene_14                   scene_14
     00000007  ___bank_scene_14_init              scene_14_init
     00000007  ___bank_scene_14_triggers          scene_14_triggers
     00000007  ___bank_scene_15                   scene_15
     00000007  ___bank_scene_15_init              scene_15_init
     00000007  ___bank_scene_15_sprites           scene_15_sprites
     00000007  ___bank_scene_15_triggers          scene_15_triggers
     00000007  ___bank_scene_16                   scene_16
     00000007  ___bank_scene_16_init              scene_16_init
     00000007  ___bank_scene_17                   scene_17
     00000007  ___bank_scene_17_actors            scene_17_actors
     00000007  ___bank_scene_17_init              scene_17_init
     00000007  ___bank_scene_17_sprites           scene_17_sprites
     00000007  ___bank_scene_1_init               scene_1_init
     00000007  ___bank_scene_2                    scene_2
     00000007  ___bank_scene_2_init               scene_2_init
     00000007  ___bank_scene_3                    scene_3
     00000007  ___bank_scene_3_init               scene_3_init
     00000007  ___bank_scene_3_sprites            scene_3_sprites
     00000007  ___bank_scene_3_triggers           scene_3_triggers
     00000007  ___bank_scene_4                    scene_4
     00000007  ___bank_scene_4_init               scene_4_init
     00000007  ___bank_scene_4_triggers           scene_4_triggers
     00000007  ___bank_scene_5                    scene_5
     00000007  ___bank_scene_5_init               scene_5_init
     00000007  ___bank_scene_6                    scene_6
     00000007  ___bank_scene_6_init               scene_6_init
     00000007  ___bank_scene_6_sprites            scene_6_sprites
ASxxxx Linker V03.00/V05.40 + sdld,  page 13.
Hexadecimal  [32-Bits]

Area                                    Addr        Size        Decimal Bytes (Attributes)
--------------------------------        ----        ----        ------- ----- ------------
.  .ABS.                            00000000    00000000 =           0. bytes (ABS,CON)

      Value  Global                              Global Defined In Module
      -----  --------------------------------   ------------------------
     00000007  ___bank_scene_6_triggers           scene_6_triggers
     00000007  ___bank_scene_7                    scene_7
     00000007  ___bank_scene_7_sprites            scene_7_sprites
     00000007  ___bank_scene_7_triggers           scene_7_triggers
     00000007  ___bank_scene_9                    scene_9
     00000007  ___bank_scene_9_init               scene_9_init
     00000007  ___bank_script_engine_init         
     00000007  ___bank_sound_legacy_0             sound_legacy_0
     00000007  ___bank_sprite_actor_animated      sprite_actor_animated
     00000007  ___bank_sprite_actor_animated_bu   sprite_actor_animated_bubbl
     00000007  ___bank_sprite_actor_animated_bu   sprite_actor_animated_bubbl_
     00000007  ___bank_sprite_actor_animated_gi   sprite_actor_animated_gir_v
     00000007  ___bank_sprite_actor_animated_gi   sprite_actor_animated_gir_v_
     00000007  ___bank_sprite_actor_boy           sprite_actor_boy
     00000007  ___bank_sprite_actor_boy_tileset   sprite_actor_boy_tileset
     00000007  ___bank_sprite_actor_cat           sprite_actor_cat
     00000007  ___bank_sprite_actor_cat_tileset   sprite_actor_cat_tileset
     00000007  ___bank_sprite_actor_girl          sprite_actor_girl
     00000007  ___bank_sprite_actor_girl_tilese   sprite_actor_girl_tileset
     00000007  ___bank_sprite_actor_grass         sprite_actor_grass
     00000007  ___bank_sprite_actor_grass_2       sprite_actor_grass_2
     00000007  ___bank_sprite_actor_grass_2_til   sprite_actor_grass_2_tileset
     00000007  ___bank_sprite_actor_grass_tiles   sprite_actor_grass_tileset
     00000007  ___bank_sprite_actor_handicap_ma   sprite_actor_handicap_man
     00000007  ___bank_sprite_actor_handicap_ma   sprite_actor_handicap_man_ti
     00000007  ___bank_sprite_actor_light         sprite_actor_light
     00000007  ___bank_sprite_actor_light_tiles   sprite_actor_light_tileset
     00000007  ___bank_sprite_actor_music         sprite_actor_music
     00000007  ___bank_sprite_actor_music_tiles   sprite_actor_music_tileset
     00000007  ___bank_sprite_actor_old_man       sprite_actor_old_man
     00000007  ___bank_sprite_actor_old_man_2     sprite_actor_old_man_2
     00000007  ___bank_sprite_actor_old_man_2_t   sprite_actor_old_man_2_tiles
     00000007  ___bank_sprite_actor_old_man_til   sprite_actor_old_man_tileset
     00000007  ___bank_sprite_actor_woman         sprite_actor_woman
     00000007  ___bank_sprite_actor_woman_tiles   sprite_actor_woman_tileset
     00000007  ___bank_sprite_static_bathtub      sprite_static_bathtub
     00000007  ___bank_sprite_static_bathtub_ti   sprite_static_bathtub_tilese
     00000007  ___bank_sprite_static_bed          sprite_static_bed
     00000007  ___bank_sprite_static_bed_2        sprite_static_bed_2
     00000007  ___bank_sprite_static_bed_2_tile   sprite_static_bed_2_tileset
     00000007  ___bank_sprite_static_bed_tilese   sprite_static_bed_tileset
     00000007  ___bank_sprite_static_door_close   sprite_static_door_close_v1
     00000007  ___bank_sprite_static_door_close   sprite_static_door_close_v1_
     00000007  ___bank_sprite_static_door_close   sprite_static_door_close_v2
     00000007  ___bank_sprite_static_door_close   sprite_static_door_close_v2_
     00000007  ___bank_sprite_static_door_close   sprite_static_door_close_v3
     00000007  ___bank_sprite_static_door_close   sprite_static_door_close_v3_
     00000007  ___bank_sprite_static_door_close   sprite_static_door_close_v4
     00000007  ___bank_sprite_static_door_close   sprite_static_door_close_v4_
     00000007  ___bank_sprite_static_door_close   sprite_static_door_close_v5
     00000007  ___bank_sprite_static_door_close   sprite_static_door_close_v5_
ASxxxx Linker V03.00/V05.40 + sdld,  page 14.
Hexadecimal  [32-Bits]

Area                                    Addr        Size        Decimal Bytes (Attributes)
--------------------------------        ----        ----        ------- ----- ------------
.  .ABS.                            00000000    00000000 =           0. bytes (ABS,CON)

      Value  Global                              Global Defined In Module
      -----  --------------------------------   ------------------------
     00000007  ___bank_sprite_static_door_close   sprite_static_door_close_v6
     00000007  ___bank_sprite_static_door_close   sprite_static_door_close_v6_
     00000007  ___bank_sprite_static_furniture_   sprite_static_furniture_v1
     00000007  ___bank_sprite_static_furniture_   sprite_static_furniture_v2
     00000007  ___bank_sprite_static_furniture_   sprite_static_furniture_v2_t
     00000007  ___bank_sprite_static_gas_stove    sprite_static_gas_stove
     00000007  ___bank_sprite_static_gas_stove_   sprite_static_gas_stove_tile
     00000007  ___bank_sprite_static_grand_pap    sprite_static_grand_pap
     00000007  ___bank_sprite_static_grand_pap_   sprite_static_grand_pap_tile
     00000007  ___bank_sprite_static_mirror       sprite_static_mirror
     00000007  ___bank_sprite_static_mirror_til   sprite_static_mirror_tileset
     00000007  ___bank_sprite_static_old_phone    sprite_static_old_phone
     00000007  ___bank_sprite_static_old_phone_   sprite_static_old_phone_tile
     00000007  ___bank_sprite_static_sign         sprite_static_sign
     00000007  ___bank_sprite_static_sign_tiles   sprite_static_sign_tileset
     00000007  ___bank_sprite_static_sink         sprite_static_sink
     00000007  ___bank_sprite_static_sink_tiles   sprite_static_sink_tileset
     00000007  ___bank_sprite_static_sleep        sprite_static_sleep
     00000007  ___bank_sprite_static_sleep_tile   sprite_static_sleep_tileset
     00000007  ___bank_sprite_static_tv           sprite_static_tv
     00000007  ___bank_sprite_static_tv_tileset   sprite_static_tv_tileset
     00000007  ___bank_sprite_static_washbasin    sprite_static_washbasin
     00000007  ___bank_sprite_static_washbasin_   sprite_static_washbasin_tile
     00000007  ___bank_spritesheet_none           spritesheet_none
     00000007  ___bank_tileset_default_frame      tileset_default_frame
     00000007  ___bank_trigger_14_interact        trigger_14_interact
     00000007  ___bank_trigger_15_interact        trigger_15_interact
     00000007  ___bank_trigger_16_interact        trigger_16_interact
     00000007  ___bank_trigger_18_interact        trigger_18_interact
     00000007  ___bank_trigger_19_interact        trigger_19_interact
     00000007  ___bank_trigger_1_interact         trigger_1_interact
     00000007  ___bank_trigger_20_interact        trigger_20_interact
     00000007  ___bank_trigger_23_interact        trigger_23_interact
     00000007  ___bank_trigger_24_interact        trigger_24_interact
     00000007  ___bank_trigger_25_interact        trigger_25_interact
     00000007  ___bank_trigger_26_interact        trigger_26_interact
     00000007  ___bank_trigger_27_interact        trigger_27_interact
     00000007  ___bank_trigger_28_interact        trigger_28_interact
     00000007  ___bank_trigger_29_interact        trigger_29_interact
     00000007  ___bank_trigger_2_interact         trigger_2_interact
     00000007  ___bank_trigger_30_interact        trigger_30_interact
     00000007  ___bank_trigger_33_interact        trigger_33_interact
     00000007  ___bank_trigger_35_interact        trigger_35_interact
     00000007  ___bank_trigger_3_interact         trigger_3_interact
     00000007  ___bank_trigger_4_interact         trigger_4_interact
     00000007  ___bank_trigger_51_interact        trigger_51_interact
     00000007  ___bank_trigger_52_interact        trigger_52_interact
     00000007  ___bank_trigger_53_interact        trigger_53_interact
     00000007  ___bank_trigger_5_interact         trigger_5_interact
     00000007  ___bank_trigger_6_interact         trigger_6_interact
     00000007  b_SIO_init                         sio
ASxxxx Linker V03.00/V05.40 + sdld,  page 15.
Hexadecimal  [32-Bits]

Area                                    Addr        Size        Decimal Bytes (Attributes)
--------------------------------        ----        ----        ------- ----- ------------
.  .ABS.                            00000000    00000000 =           0. bytes (ABS,CON)

      Value  Global                              Global Defined In Module
      -----  --------------------------------   ------------------------
     00000007  b_camera_init                      camera
     00000007  b_events_init                      events
     00000007  b_input_init                       input
     00000007  b_logo_init                        logo
     00000007  b_logo_update                      logo
     00000007  b_palette_init                     palette
     00000007  b_parallax_init                    parallax
     00000007  b_remove_LCD_ISRs                  interrupts
     00000007  b_restore_sram                     flasher
     00000007  b_restore_sram_bank                flasher
     00000007  b_save_sram                        flasher
     00000007  b_scroll_rect                      
     00000007  b_timers_init                      events
     00000007  b_vm_print_detect                  vm_gbprinter
     00000007  b_vm_print_overlay                 vm_gbprinter
     00000007  b_vm_save_clear                    vm_load_save
     00000007  b_vm_save_peek                     vm_load_save
     00000007  b_vm_scene_pop                     vm_scene
     00000007  b_vm_scene_pop_all                 vm_scene
     00000007  b_vm_scene_push                    vm_scene
     00000007  b_vm_scene_stack_reset             vm_scene
     00000007  l__HEADER2                      
     00000008  ___mute_mask_sound_gbfx2_sav_16    sound_gbfx2_sav
     00000008  ___mute_mask_sound_gbfx2_sav_17    sound_gbfx2_sav
     00000008  ___mute_mask_sound_gbfx2_sav_18    sound_gbfx2_sav
     00000008  ___mute_mask_sound_gbfx2_sav_19    sound_gbfx2_sav
     00000008  ___mute_mask_sound_gbfx2_sav_20    sound_gbfx2_sav
     00000008  ___mute_mask_sound_gbfx2_sav_21    sound_gbfx2_sav
     00000008  ___mute_mask_sound_gbfx2_sav_22    sound_gbfx2_sav
     00000008  ___mute_mask_sound_gbfx2_sav_23    sound_gbfx2_sav
     00000008  ___mute_mask_sound_gbfx2_sav_24    sound_gbfx2_sav
     00000008  ___mute_mask_sound_gbfx2_sav_25    sound_gbfx2_sav
     00000008  ___mute_mask_sound_gbfx2_sav_26    sound_gbfx2_sav
     00000008  ___mute_mask_sound_gbfx2_sav_27    sound_gbfx2_sav
     00000008  ___mute_mask_sound_gbfx2_sav_28    sound_gbfx2_sav
     00000008  ___mute_mask_sound_gbfx2_sav_29    sound_gbfx2_sav
     00000008  ___mute_mask_sound_gbfx2_sav_30    sound_gbfx2_sav
     00000008  ___mute_mask_sound_gbfx2_sav_31    sound_gbfx2_sav
     00000008  ___mute_mask_sound_gbfx_sav_16     sound_gbfx_sav
     00000008  ___mute_mask_sound_gbfx_sav_17     sound_gbfx_sav
     00000008  ___mute_mask_sound_gbfx_sav_18     sound_gbfx_sav
     00000008  ___mute_mask_sound_gbfx_sav_19     sound_gbfx_sav
     00000008  ___mute_mask_sound_gbfx_sav_20     sound_gbfx_sav
     00000008  ___mute_mask_sound_gbfx_sav_21     sound_gbfx_sav
     00000008  ___mute_mask_sound_gbfx_sav_22     sound_gbfx_sav
     00000008  ___mute_mask_sound_gbfx_sav_23     sound_gbfx_sav
     00000008  ___mute_mask_sound_gbfx_sav_24     sound_gbfx_sav
     00000008  ___mute_mask_sound_gbfx_sav_25     sound_gbfx_sav
     00000008  ___mute_mask_sound_gbfx_sav_26     sound_gbfx_sav
     00000008  ___mute_mask_sound_gbfx_sav_27     sound_gbfx_sav
     00000008  ___mute_mask_sound_gbfx_sav_28     sound_gbfx_sav
ASxxxx Linker V03.00/V05.40 + sdld,  page 16.
Hexadecimal  [32-Bits]

Area                                    Addr        Size        Decimal Bytes (Attributes)
--------------------------------        ----        ----        ------- ----- ------------
.  .ABS.                            00000000    00000000 =           0. bytes (ABS,CON)

      Value  Global                              Global Defined In Module
      -----  --------------------------------   ------------------------
     00000008  ___mute_mask_sound_gbfx_sav_29     sound_gbfx_sav
     00000008  ___mute_mask_sound_gbfx_sav_30     sound_gbfx_sav
     00000008  ___mute_mask_sound_gbfx_sav_31     sound_gbfx_sav
     00000008  ___mute_mask_sound_legacy_0        sound_legacy_0
     00000008  l__HEADER3                      
     0000000A  ___mute_mask_sound_gbfx2_sav_32    sound_gbfx2_sav
     0000000A  ___mute_mask_sound_gbfx2_sav_33    sound_gbfx2_sav
     0000000A  ___mute_mask_sound_gbfx2_sav_34    sound_gbfx2_sav
     0000000A  ___mute_mask_sound_gbfx2_sav_35    sound_gbfx2_sav
     0000000A  ___mute_mask_sound_gbfx2_sav_36    sound_gbfx2_sav
     0000000A  ___mute_mask_sound_gbfx2_sav_37    sound_gbfx2_sav
     0000000A  ___mute_mask_sound_gbfx2_sav_38    sound_gbfx2_sav
     0000000A  ___mute_mask_sound_gbfx2_sav_39    sound_gbfx2_sav
     0000000A  ___mute_mask_sound_gbfx2_sav_40    sound_gbfx2_sav
     0000000A  ___mute_mask_sound_gbfx2_sav_41    sound_gbfx2_sav
     0000000A  ___mute_mask_sound_gbfx2_sav_42    sound_gbfx2_sav
     0000000A  ___mute_mask_sound_gbfx2_sav_43    sound_gbfx2_sav
     0000000A  ___mute_mask_sound_gbfx2_sav_44    sound_gbfx2_sav
     0000000A  ___mute_mask_sound_gbfx2_sav_45    sound_gbfx2_sav
     0000000A  ___mute_mask_sound_gbfx2_sav_46    sound_gbfx2_sav
     0000000A  ___mute_mask_sound_gbfx2_sav_47    sound_gbfx2_sav
     0000000A  ___mute_mask_sound_gbfx_sav_40     sound_gbfx_sav
     0000000A  ___mute_mask_sound_gbfx_sav_41     sound_gbfx_sav
     0000000A  ___mute_mask_sound_gbfx_sav_42     sound_gbfx_sav
     0000000A  ___mute_mask_sound_gbfx_sav_43     sound_gbfx_sav
     0000000A  ___mute_mask_sound_gbfx_sav_44     sound_gbfx_sav
     0000000A  ___mute_mask_sound_gbfx_sav_45     sound_gbfx_sav
     0000000A  ___mute_mask_sound_gbfx_sav_46     sound_gbfx_sav
     0000000A  ___mute_mask_sound_gbfx_sav_47     sound_gbfx_sav
     00000018  l__INITIALIZED                  
     00000018  l__INITIALIZER                  
     00000027  l__GSINIT                       
     00000030  l__HEADER7                      
     00000060  l__HEADER4                      
     000000AB  l__HEADER11                     
     000001CB  l__CRASH_SCRATCH2               
     00000200  s__CODE                         
     00000E4C  l__CODE                         
     0000104C  s__HOME                         
     00001971  l__DATA                         
     00002000  _rROMB0                            
     00002C6F  l__HOME                         
     00003000  _rROMB1                            
     0000370F  l__CODE_7                       
     00003CBB  s__BASE                         
     00003CBB  s__CODE_0                       
     00003CBB  s__INITIALIZER                  
     00003CBB  s__LIT                          
     00003CD3  s__GSINIT                       
     00003CFA  s__GSFINAL                      
     00003FFF  l__CODE_1                       
ASxxxx Linker V03.00/V05.40 + sdld,  page 17.
Hexadecimal  [32-Bits]

Area                                    Addr        Size        Decimal Bytes (Attributes)
--------------------------------        ----        ----        ------- ----- ------------
.  .ABS.                            00000000    00000000 =           0. bytes (ABS,CON)

      Value  Global                              Global Defined In Module
      -----  --------------------------------   ------------------------
     00003FFF  l__CODE_4                       
     00003FFF  l__CODE_6                       
     00004000  _RTC_SELECT_REG                    vm_rtc
     00004000  _rRAMB                             
     00004000  l__CODE_2                       
     00004000  l__CODE_3                       
     00004000  l__CODE_5                       
     00006000  _RTC_LATCH_REG                     vm_rtc
     00008000  __VRAM                             
     00008000  __VRAM8000                         
     00008800  __VRAM8800                         
     00009000  __VRAM9000                         
     00009800  __SCRN0                            
     00009C00  __SCRN1                            
     0000A000  _RTC_VALUE_REG                     vm_rtc
     0000A000  __SRAM                             
     0000C000  __RAM                              
     0000C000  _shadow_OAM                     
     0000C0A0  s__DATA                         
     0000D000  __RAMBANK                          
     0000DA11  s__BSS                          
     0000DA11  s__INITIALIZED                  
     0000DA29  s__HEAP                         
     0000DA29  s__HEAP_END                     
     0000DF00  .STACK                          
     0000DF00  _shadow_OAM2                       absolute
     0000DFA0  _BkgPalette                        absolute
     0000DFE0  _vwf_tile_data                     absolute
     0000FE00  __OAMRAM                           
     0000FF00  _P1_REG                            
     0000FF00  __IO                               
     0000FF01  _SB_REG                            
     0000FF02  _SC_REG                            
     0000FF04  _DIV_REG                           
     0000FF05  _TIMA_REG                          
     0000FF06  _TMA_REG                           
     0000FF07  _TAC_REG                           
     0000FF0F  _IF_REG                            
     0000FF10  _NR10_REG                          
     0000FF11  _NR11_REG                          
     0000FF12  _NR12_REG                          
     0000FF13  _NR13_REG                          
     0000FF14  _NR14_REG                          
     0000FF16  _NR21_REG                          
     0000FF17  _NR22_REG                          
     0000FF18  _NR23_REG                          
     0000FF19  _NR24_REG                          
     0000FF1A  _NR30_REG                          
     0000FF1B  _NR31_REG                          
     0000FF1C  _NR32_REG                          
     0000FF1D  _NR33_REG                          
ASxxxx Linker V03.00/V05.40 + sdld,  page 18.
Hexadecimal  [32-Bits]

Area                                    Addr        Size        Decimal Bytes (Attributes)
--------------------------------        ----        ----        ------- ----- ------------
.  .ABS.                            00000000    00000000 =           0. bytes (ABS,CON)

      Value  Global                              Global Defined In Module
      -----  --------------------------------   ------------------------
     0000FF1E  _NR34_REG                          
     0000FF20  _NR41_REG                          
     0000FF21  _NR42_REG                          
     0000FF22  _NR43_REG                          
     0000FF23  _NR44_REG                          
     0000FF24  _NR50_REG                          
     0000FF25  _NR51_REG                          
     0000FF26  _NR52_REG                          
     0000FF30  _AUD3WAVE                          
     0000FF30  _PCM_SAMPLE                        
     0000FF30  __AUD3WAVERAM                      
     0000FF40  _LCDC_REG                          
     0000FF41  _STAT_REG                          
     0000FF42  _SCY_REG                           
     0000FF43  _SCX_REG                           
     0000FF44  _LY_REG                            
     0000FF45  _LYC_REG                           
     0000FF46  _DMA_REG                           
     0000FF47  _BGP_REG                           
     0000FF48  _OBP0_REG                          
     0000FF49  _OBP1_REG                          
     0000FF4A  _WY_REG                            
     0000FF4B  _WX_REG                            
     0000FF4D  _KEY1_REG                          
     0000FF4F  _VBK_REG                           
     0000FF51  _HDMA1_REG                         
     0000FF52  _HDMA2_REG                         
     0000FF53  _HDMA3_REG                         
     0000FF54  _HDMA4_REG                         
     0000FF55  _HDMA5_REG                         
     0000FF56  _RP_REG                            
     0000FF68  _BCPS_REG                          
     0000FF69  _BCPD_REG                          
     0000FF6A  _OCPS_REG                          
     0000FF6B  _OCPD_REG                          
     0000FF70  _SVBK_REG                          
     0000FF76  _PCM12_REG                         
     0000FF77  _PCM34_REG                         
     0000FF80  .refresh_OAM                    
     0000FF80  __HRAM                             
     0000FFFF  _IE_REG                            
     00014000  s__CODE_1                       
     00024000  s__CODE_2                       
     00034000  s__CODE_3                       
     00044000  s__CODE_4                       
     00054000  s__CODE_5                       
     00064000  s__CODE_6                       
     00074000  s__CODE_7                       

ASxxxx Linker V03.00/V05.40 + sdld,  page 19.
Hexadecimal  [32-Bits]

Area                                    Addr        Size        Decimal Bytes (Attributes)
--------------------------------        ----        ----        ------- ----- ------------
_CODE                               00000200    00000E4C =        3660. bytes (REL,CON)

      Value  Global                              Global Defined In Module
      -----  --------------------------------   ------------------------
     00000200  ___HandleCrash                     
     0000020A  _SIO_send_byte                     
     0000021D  _SIO_receive                       
     0000022E  _GetWinAddr                        
     00000236  _GetBkgAddr                        
     00000244  _state_init                        
     00000249  _state_update                      
     0000026B  _ui_time_masks                     
     00000273  _ui_print_shift_char               
     000002F6  _ui_draw_frame_row                 
     000002FF  .ui_draw_frame_row                 
     00000328  _script_cmds                       vm_instructions
     00000560  _save_signature                    game_signature
     00000564  _start_scene_x                     
     00000566  _start_scene_y                     
     00000568  _start_scene_dir                   
     00000569  _start_scene                       
     0000056C  _start_player_move_speed           
     0000056D  _start_player_anim_tick            
     0000056E  _ui_fonts                          
     00000571  _core_reset_hook                   main
     00000579  _main                              main
     00000581  _state_start_fns                   
     00000587  _state_update_fns                  
     0000058D  _hUGE_init                         hUGEDriver_obj
     0000058F  hUGE_init                          hUGEDriver_obj
     000005E5  _hUGE_mute_channel                 hUGEDriver_obj
     000005E7  hUGE_mute_channel                  hUGEDriver_obj
     00000835  _hUGE_set_position                 hUGEDriver_obj
     00000837  hUGE_set_position                  hUGEDriver_obj
     000009FC  _hUGE_dosound                      hUGEDriver_obj
     000009FC  hUGE_dosound                       hUGEDriver_obj
     00000D28  _get_vram_byte                     
     00000D30  _get_win_tile_xy                   
     00000D38  _get_bkg_tile_xy                   
     00000D5F  _hide_sprites_range                Metasprites
     00000D8E  __mulsuchar                        mul
     00000D91  __muluschar                        mul
     00000D9A  __mulschar                         mul
     00000DA2  __mulint                           mul
     00000DC1  __muluchar                         mul
     00000DD3  _set_vram_byte                     
     00000DDC  _set_win_tile_xy                   
     00000DE5  _set_bkg_tile_xy                   
     00000E14  .sgb_check                         
     00000E14  _sgb_check                         
     00000E5C  _sgb_transfer                      
     00000E61  .sgb_transfer                      
     00000EA2  .copy_vram                         
     00000EA8  _get_data                          
ASxxxx Linker V03.00/V05.40 + sdld,  page 20.
Hexadecimal  [32-Bits]

Area                                    Addr        Size        Decimal Bytes (Attributes)
--------------------------------        ----        ----        ------- ----- ------------
_CODE                               00000200    00000E4C =        3660. bytes (REL,CON)

      Value  Global                              Global Defined In Module
      -----  --------------------------------   ------------------------
     00000EA8  _set_data                          
     00000EA8  _vmemcpy                           
     00000EF6  ___move_metasprite                 Metasprites
     00000F33  ___memcpy                          
     00000F33  _memcpy                            
     00000F65  __divsuchar                        divmod
     00000F6B  __modsuchar                        divmod
     00000F74  __divuschar                        divmod
     00000F7D  __moduschar                        divmod
     00000F89  __divschar                         divmod
     00000F8E  __modschar                         divmod
     00000F95  __divsint                          divmod
     00000F9E  __modsint                          divmod
     00000FAA  __divuchar                         divmod
     00000FAF  __moduchar                         divmod
     00000FB6  __divuint                          divmod
     00000FBF  __moduint                          divmod
     00000FCB  .div8                              divmod
     00000FCB  .mod8                              divmod
     00000FD3  .div16                             divmod
     00000FD3  .mod16                             divmod
     00001009  .divu8                             divmod
     00001009  .modu8                             divmod
     0000100C  .divu16                            divmod
     0000100C  .modu16                            divmod
ASxxxx Linker V03.00/V05.40 + sdld,  page 21.
Hexadecimal  [32-Bits]

Area                                    Addr        Size        Decimal Bytes (Attributes)
--------------------------------        ----        ----        ------- ----- ------------
_HEADER0                            00000000    00000001 =           1. bytes (ABS,CON)

      Value  Global                              Global Defined In Module
      -----  --------------------------------   ------------------------
     00000020  .call_hl                           Runtime

ASxxxx Linker V03.00/V05.40 + sdld,  page 22.
Hexadecimal  [32-Bits]

Area                                    Addr        Size        Decimal Bytes (Attributes)
--------------------------------        ----        ----        ------- ----- ------------
_HEADER1                            00000000    00000005 =           5. bytes (ABS,CON)

      Value  Global                              Global Defined In Module
      -----  --------------------------------   ------------------------
     00000028  .MemsetSmall                       Runtime

ASxxxx Linker V03.00/V05.40 + sdld,  page 23.
Hexadecimal  [32-Bits]

Area                                    Addr        Size        Decimal Bytes (Attributes)
--------------------------------        ----        ----        ------- ----- ------------
_HEADER2                            00000000    00000007 =           7. bytes (ABS,CON)

      Value  Global                              Global Defined In Module
      -----  --------------------------------   ------------------------
     00000030  .MemcpySmall                       Runtime

ASxxxx Linker V03.00/V05.40 + sdld,  page 24.
Hexadecimal  [32-Bits]

Area                                    Addr        Size        Decimal Bytes (Attributes)
--------------------------------        ----        ----        ------- ----- ------------
_HEADER3                            00000000    00000008 =           8. bytes (ABS,CON)

      Value  Global                              Global Defined In Module
      -----  --------------------------------   ------------------------
ASxxxx Linker V03.00/V05.40 + sdld,  page 25.
Hexadecimal  [32-Bits]

Area                                    Addr        Size        Decimal Bytes (Attributes)
--------------------------------        ----        ----        ------- ----- ------------
_HEADER4                            00000000    00000060 =          96. bytes (ABS,CON)

      Value  Global                              Global Defined In Module
      -----  --------------------------------   ------------------------
     00000080  .int                               Runtime
     0000008F  _wait_int_handler                  Runtime
     0000009C  __standard_VBL_handler             Runtime
     000000AB  _refresh_OAM                       Runtime
     000000CC  _set_interrupts                    Runtime

ASxxxx Linker V03.00/V05.40 + sdld,  page 26.
Hexadecimal  [32-Bits]

Area                                    Addr        Size        Decimal Bytes (Attributes)
--------------------------------        ----        ----        ------- ----- ------------
_HEADER5                            00000000    00000001 =           1. bytes (ABS,CON)

      Value  Global                              Global Defined In Module
      -----  --------------------------------   ------------------------
ASxxxx Linker V03.00/V05.40 + sdld,  page 27.
Hexadecimal  [32-Bits]

Area                                    Addr        Size        Decimal Bytes (Attributes)
--------------------------------        ----        ----        ------- ----- ------------
_HEADER6                            00000000    00000002 =           2. bytes (ABS,CON)

      Value  Global                              Global Defined In Module
      -----  --------------------------------   ------------------------
ASxxxx Linker V03.00/V05.40 + sdld,  page 28.
Hexadecimal  [32-Bits]

Area                                    Addr        Size        Decimal Bytes (Attributes)
--------------------------------        ----        ----        ------- ----- ------------
_HEADER7                            00000000    00000030 =          48. bytes (ABS,CON)

      Value  Global                              Global Defined In Module
      -----  --------------------------------   ------------------------
ASxxxx Linker V03.00/V05.40 + sdld,  page 29.
Hexadecimal  [32-Bits]

Area                                    Addr        Size        Decimal Bytes (Attributes)
--------------------------------        ----        ----        ------- ----- ------------
_HEADER8                            00000000    00000006 =           6. bytes (ABS,CON)

      Value  Global                              Global Defined In Module
      -----  --------------------------------   ------------------------
ASxxxx Linker V03.00/V05.40 + sdld,  page 30.
Hexadecimal  [32-Bits]

Area                                    Addr        Size        Decimal Bytes (Attributes)
--------------------------------        ----        ----        ------- ----- ------------
_HEADER9                            00000000    00000003 =           3. bytes (ABS,CON)

      Value  Global                              Global Defined In Module
      -----  --------------------------------   ------------------------
ASxxxx Linker V03.00/V05.40 + sdld,  page 31.
Hexadecimal  [32-Bits]

Area                                    Addr        Size        Decimal Bytes (Attributes)
--------------------------------        ----        ----        ------- ----- ------------
_HEADERa                            00000000    00000001 =           1. bytes (ABS,CON)

      Value  Global                              Global Defined In Module
      -----  --------------------------------   ------------------------
ASxxxx Linker V03.00/V05.40 + sdld,  page 32.
Hexadecimal  [32-Bits]

Area                                    Addr        Size        Decimal Bytes (Attributes)
--------------------------------        ----        ----        ------- ----- ------------
_HEADERb                            00000000    00000001 =           1. bytes (ABS,CON)

      Value  Global                              Global Defined In Module
      -----  --------------------------------   ------------------------
ASxxxx Linker V03.00/V05.40 + sdld,  page 33.
Hexadecimal  [32-Bits]

Area                                    Addr        Size        Decimal Bytes (Attributes)
--------------------------------        ----        ----        ------- ----- ------------
_HEADERc                            00000000    00000001 =           1. bytes (ABS,CON)

      Value  Global                              Global Defined In Module
      -----  --------------------------------   ------------------------
ASxxxx Linker V03.00/V05.40 + sdld,  page 34.
Hexadecimal  [32-Bits]

Area                                    Addr        Size        Decimal Bytes (Attributes)
--------------------------------        ----        ----        ------- ----- ------------
_HEADERd                            00000000    00000002 =           2. bytes (ABS,CON)

      Value  Global                              Global Defined In Module
      -----  --------------------------------   ------------------------
ASxxxx Linker V03.00/V05.40 + sdld,  page 35.
Hexadecimal  [32-Bits]

Area                                    Addr        Size        Decimal Bytes (Attributes)
--------------------------------        ----        ----        ------- ----- ------------
_HEADERe                            00000000    00000001 =           1. bytes (ABS,CON)

      Value  Global                              Global Defined In Module
      -----  --------------------------------   ------------------------
ASxxxx Linker V03.00/V05.40 + sdld,  page 36.
Hexadecimal  [32-Bits]

Area                                    Addr        Size        Decimal Bytes (Attributes)
--------------------------------        ----        ----        ------- ----- ------------
_HEADERf                            00000000    00000001 =           1. bytes (ABS,CON)

      Value  Global                              Global Defined In Module
      -----  --------------------------------   ------------------------
ASxxxx Linker V03.00/V05.40 + sdld,  page 37.
Hexadecimal  [32-Bits]

Area                                    Addr        Size        Decimal Bytes (Attributes)
--------------------------------        ----        ----        ------- ----- ------------
_HEADER10                           00000000    00000002 =           2. bytes (ABS,CON)

      Value  Global                              Global Defined In Module
      -----  --------------------------------   ------------------------
ASxxxx Linker V03.00/V05.40 + sdld,  page 38.
Hexadecimal  [32-Bits]

Area                                    Addr        Size        Decimal Bytes (Attributes)
--------------------------------        ----        ----        ------- ----- ------------
_HEADER11                           00000000    000000AB =         171. bytes (ABS,CON)

      Value  Global                              Global Defined In Module
      -----  --------------------------------   ------------------------
     00000150  .reset                             Runtime
     00000150  _reset                             Runtime
     00000157  .code_start                        Runtime
     000001B9  _exit                              Runtime
     000001BD  .wait_vbl_done                     Runtime
     000001BD  _vsync                             Runtime
     000001BD  _wait_vbl_done                     Runtime
     000001CD  .remove_VBL                        Runtime
     000001CD  _remove_VBL                        Runtime
     000001D0  .remove_int                        Runtime
     000001ED  .add_VBL                           Runtime
     000001ED  _add_VBL                           Runtime
     000001F0  .add_int                           Runtime

ASxxxx Linker V03.00/V05.40 + sdld,  page 39.
Hexadecimal  [32-Bits]

Area                                    Addr        Size        Decimal Bytes (Attributes)
--------------------------------        ----        ----        ------- ----- ------------
_HOME                               0000104C    00002C6F =       11375. bytes (REL,CON)

      Value  Global                              Global Defined In Module
      -----  --------------------------------   ------------------------
     0000104C  .memset_simple                     Runtime
     00001055  .memcpy_simple                     Runtime
     00001072  .display_off                       Runtime
     00001072  _display_off                       Runtime
     0000108A  _actors_update                     actor
     000014E6  _SetBankedBkgData                  bankdata
     00001502  _SetBankedSpriteData               bankdata
     0000151E  _SetBankedBkgTiles                 bankdata
     0000153A  _SetBankedWinTiles                 bankdata
     00001556  _ReadBankedFarPtr                  bankdata
     00001578  _ReadBankedUWORD                   bankdata
     00001592  _MemcpyBanked                      bankdata
     000015B4  _MemcpyVRAMBanked                  bankdata
     000015E3  _IndexOfFarPtr                     bankdata
     00001668  _camera_update                     camera
     0000179B  _load_animations                   data_manager
     000017F4  _events_update                     events
     000018C7  _timers_update                     events
     00001950  _input_update                      input
     00001973  .sio_ISR                           
     000019CD  .timer_ISR                         
     000019E2  _simple_LCD_isr                    interrupts
     00001A61  _fullscreen_LCD_isr                interrupts
     00001A8D  _VBL_isr                           interrupts
     00001AD7  _isqrt                             math
     00001B34  _sine_wave                         math
     00001C34  _dir_lookup                        math
     00001C3C  _dir_angle_lookup                  math
     00001C40  _hUGETrackerRoutine                music_manager
     00001C67  _music_events_update               music_manager
     00001CE9  _music_play_isr                    music_manager
     00001D8A  _parallax_LCD_isr                  parallax
     00001DC7  _projectiles_update                projectiles
     00002248  _projectiles_render                projectiles
     0000239D  _scroll_load_pending_row           scroll
     000023EB  _scroll_load_row                   scroll
     0000242B  _scroll_load_col                   scroll
     00002460  _scroll_load_pending_col           scroll
     000024AF  _set_bkg_submap                    
     000024F2  _set_xy_win_submap                 
     0000251F  .set_xy_win_submap                 
     00002528  .set_xy_bkg_submap                 
     00002537  .set_xy_submap                     
     00002583  _sfx_play_isr                      sfx_player
     0000265C  _on_SIO_receive                    sio
     0000269D  _SIO_update                        sio
     00002704  _ui_update                         ui
     0000283C  _vm_sgb_transfer                   vm_sgb
     00002889  _vm_load_text                      vm_ui
     00002ADF  _vm_switch                         vm
ASxxxx Linker V03.00/V05.40 + sdld,  page 40.
Hexadecimal  [32-Bits]

Area                                    Addr        Size        Decimal Bytes (Attributes)
--------------------------------        ----        ----        ------- ----- ------------
_HOME                               0000104C    00002C6F =       11375. bytes (REL,CON)

      Value  Global                              Global Defined In Module
      -----  --------------------------------   ------------------------
     00002C10  _vm_beginthread                    vm
     00002D34  _vm_rpn                            vm
     0000374C  _vm_get_far                        vm
     000037BA  _vm_call_native                    vm
     000037CD  _VM_STEP                           vm
     00003837  _script_runner_update              vm
     0000399C  _fill_win_rect                     
     000039AE  _rand                              
     000039AE  _randw                             
     000039D9  _initrand                          
     000039DB  .initrand                          
     000039E4  _get_bkg_data                      
     000039E4  _get_win_data                      
     00003A31  _get_sprite_data                   
     00003A64  _abs                               abs
     00003A71  _set_win_tiles                     
     00003A85  _set_tile_data                     
     00003A8A  _set_bkg_data                      
     00003A8A  _set_win_data                      
     00003A92  _set_sprite_data                   
     00003AC2  _reverse                           reverse
     00003AF6  ___call__banked                    far_ptr
     00003B13  _to_far_ptr                        far_ptr
     00003B49  .add_LCD                           
     00003B49  _add_LCD                           
     00003B4F  .remove_LCD                        
     00003B4F  _remove_LCD                        
     00003B55  .fill_rect_wtt                     
     00003B5E  .fill_rect_btt                     
     00003BAB  _fill_bkg_rect                     
     00003BBD  .padup                             
     00003BBD  _waitpadup                         
     00003BCD  .jpad                              
     00003BCD  _joypad                            
     00003BF5  _waitpad                           
     00003BF6  .wait_pad                          
     00003BFD  ___sdcc_call_hl                    call_hl
     00003BFE  _memset                            memset
     00003C31  .set_xy_wtt                        SetTileMap
     00003C3A  .set_xy_btt                        SetTileMap
     00003C49  .set_xy_tt                         SetTileMap
     00003C8D  ___sdcc_bcall_ehl                  
     00003CA7  _set_bkg_tiles                     
ASxxxx Linker V03.00/V05.40 + sdld,  page 41.
Hexadecimal  [32-Bits]

Area                                    Addr        Size        Decimal Bytes (Attributes)
--------------------------------        ----        ----        ------- ----- ------------
_INITIALIZER                        00003CBB    00000018 =          24. bytes (REL,CON)

      Value  Global                              Global Defined In Module
      -----  --------------------------------   ------------------------
ASxxxx Linker V03.00/V05.40 + sdld,  page 42.
Hexadecimal  [32-Bits]

Area                                    Addr        Size        Decimal Bytes (Attributes)
--------------------------------        ----        ----        ------- ----- ------------
_GSINIT                             00003CD3    00000027 =          39. bytes (REL,CON)

      Value  Global                              Global Defined In Module
      -----  --------------------------------   ------------------------
     00003CD3  gsinit                             Runtime

ASxxxx Linker V03.00/V05.40 + sdld,  page 43.
Hexadecimal  [32-Bits]

Area                                    Addr        Size        Decimal Bytes (Attributes)
--------------------------------        ----        ----        ------- ----- ------------
_GSFINAL                            00003CFA    00000001 =           1. bytes (REL,CON)

      Value  Global                              Global Defined In Module
      -----  --------------------------------   ------------------------
ASxxxx Linker V03.00/V05.40 + sdld,  page 44.
Hexadecimal  [32-Bits]

Area                                    Addr        Size        Decimal Bytes (Attributes)
--------------------------------        ----        ----        ------- ----- ------------
_DATA                               0000C0A0    00001971 =        6513. bytes (REL,CON)

      Value  Global                              Global Defined In Module
      -----  --------------------------------   ------------------------
     0000C0A0  __cpu                              Runtime
     0000C0A1  __is_GBA                           Runtime
     0000C0A2  .mode                              Runtime
     0000C0A3  .sys_time                          Runtime
     0000C0A3  _sys_time                          Runtime
     0000C0A5  .int_0x40                          Runtime
     0000C0B1  _actors                            actor
     0000C4F5  _actors_active_head                actor
     0000C4F7  _actors_active_tail                actor
     0000C4F9  _actors_inactive_head              actor
     0000C4FB  _screen_x                          actor
     0000C4FC  _screen_y                          actor
     0000C4FD  _invalid                           actor
     0000C4FF  _player_moving                     actor
     0000C500  _player_iframes                    actor
     0000C501  _player_collision_actor            actor
     0000C503  _emote_actor                       actor
     0000C505  _emote_timer                       actor
     0000C506  _allocated_sprite_tiles            actor
     0000C507  _allocated_hardware_sprites        actor
     0000C514  _camera_x                          camera
     0000C516  _camera_y                          camera
     0000C518  _camera_offset_x                   camera
     0000C519  _camera_offset_y                   camera
     0000C51A  _camera_deadzone_x                 camera
     0000C51B  _camera_deadzone_y                 camera
     0000C51C  _camera_settings                   camera
     0000C520  _current_scene                     data_manager
     0000C523  _image_bank                        data_manager
     0000C524  _image_ptr                         data_manager
     0000C526  _image_attr_bank                   data_manager
     0000C527  _image_attr_ptr                    data_manager
     0000C529  _collision_bank                    data_manager
     0000C52A  _collision_ptr                     data_manager
     0000C52C  _image_tile_width                  data_manager
     0000C52D  _image_tile_height                 data_manager
     0000C52E  _image_width                       data_manager
     0000C530  _image_height                      data_manager
     0000C532  _sprites_len                       data_manager
     0000C533  _actors_len                        data_manager
     0000C534  _projectiles_len                   data_manager
     0000C535  _player_sprite_len                 data_manager
     0000C536  _scene_type                        data_manager
     0000C537  _scene_LCD_type                    data_manager
     0000C538  _scene_stack                       data_manager
     0000C578  _scene_stack_ptr                   data_manager
     0000C57A  _scene_sprites_base_tiles          data_manager
     0000C5BA  _input_events                      events
     0000C5E2  _input_slots                       events
     0000C5EA  _timer_events                      events
ASxxxx Linker V03.00/V05.40 + sdld,  page 45.
Hexadecimal  [32-Bits]

Area                                    Addr        Size        Decimal Bytes (Attributes)
--------------------------------        ----        ----        ------- ----- ------------
_DATA                               0000C0A0    00001971 =        6513. bytes (REL,CON)

      Value  Global                              Global Defined In Module
      -----  --------------------------------   ------------------------
     0000C5FE  _timer_values                      events
     0000C606  _fade_running                      fade_manager
     0000C607  _fade_frames_per_step              fade_manager
     0000C608  _fade_timer                        fade_manager
     0000C610  _joypads                           input
     0000C615  _frame_joy                         input
     0000C616  _last_joy                          input
     0000C617  _recent_joy                        input
     0000C618  _SIO_status                        
     0000C619  _link_byte_sent                    
     0000C61A  _link_next_mode                    
     0000C61B  _save_blob_size                    load_save
     0000C61D  _routine_queue                     music_manager
     0000C621  _routine_queue_head                music_manager
     0000C622  _routine_queue_tail                music_manager
     0000C623  _music_events                      music_manager
     0000C637  _music_current_track_bank          music_manager
     0000C638  _music_mute_mask                   music_manager
     0000C639  _music_effective_mute              music_manager
     0000C63A  _music_next_track                  music_manager
     0000C63C  _music_current_track               music_manager
     0000C63E  _music_play_isr_counter            music_manager
     0000C63F  _music_play_isr_pause              music_manager
     0000C640  _music_global_mute_mask            music_manager
     0000C641  _music_sfx_priority                music_manager
     0000C642  _DMG_palette                       palette
     0000C645  _SprPalette                        palette
     0000C685  _parallax_rows                     parallax
     0000C697  _parallax_row                      parallax
     0000C699  _projectiles                       projectiles
     0000C752  _projectile_defs                   projectiles
     0000C7C5  _projectiles_active_head           projectiles
     0000C7C7  _projectiles_inactive_head         projectiles
     0000C7CE  _scroll_x                          scroll
     0000C7D0  _scroll_y                          scroll
     0000C7D2  _draw_scroll_x                     scroll
     0000C7D4  _draw_scroll_y                     scroll
     0000C7D6  _scroll_x_max                      scroll
     0000C7D8  _scroll_y_max                      scroll
     0000C7DA  _scroll_offset_x                   scroll
     0000C7DB  _scroll_offset_y                   scroll
     0000C7DC  _pending_h_x                       scroll
     0000C7DD  _pending_h_y                       scroll
     0000C7DE  _pending_h_i                       scroll
     0000C7DF  _pending_w_x                       scroll
     0000C7E0  _pending_w_y                       scroll
     0000C7E1  _pending_w_i                       scroll
     0000C7E2  _current_row                       scroll
     0000C7E4  _new_row                           scroll
     0000C7E6  _current_col                       scroll
     0000C7E8  _new_col                           scroll
ASxxxx Linker V03.00/V05.40 + sdld,  page 46.
Hexadecimal  [32-Bits]

Area                                    Addr        Size        Decimal Bytes (Attributes)
--------------------------------        ----        ----        ------- ----- ------------
_DATA                               0000C0A0    00001971 =        6513. bytes (REL,CON)

      Value  Global                              Global Defined In Module
      -----  --------------------------------   ------------------------
     0000C7EA  .image_tile_width                  
     0000C7EB  _sfx_play_bank                     sfx_player
     0000C7EC  _sfx_play_sample                   sfx_player
     0000C7EE  _sfx_frame_skip                    sfx_player
     0000C7EF  _link_operation_mode               sio
     0000C7F0  _link_packet                       sio
     0000C810  _link_packet_len                   sio
     0000C811  _link_packet_ptr                   sio
     0000C813  _link_packet_received              sio
     0000C814  _link_packet_snd_len               sio
     0000C815  _link_packet_snd_ptr               sio
     0000C817  _link_packet_sent                  sio
     0000C818  __is_CGB                           system
     0000C819  __is_SGB                           system
     0000C81A  __current_ram_bank                 system
     0000C81B  _triggers                          trigger
     0000C913  _last_trigger_tx                   trigger
     0000C914  _last_trigger_ty                   trigger
     0000C915  _last_trigger                      trigger
     0000C916  _win_pos_x                         ui
     0000C917  _win_dest_pos_x                    ui
     0000C918  _win_pos_y                         ui
     0000C919  _win_dest_pos_y                    ui
     0000C91A  _win_speed                         ui
     0000C91B  _text_drawn                        ui
     0000C91C  _current_text_speed                ui
     0000C91D  _text_options                      ui
     0000C91E  _text_in_speed                     ui
     0000C91F  _text_out_speed                    ui
     0000C920  _text_draw_speed                   ui
     0000C921  _text_ff_joypad                    ui
     0000C922  _text_ff                           ui
     0000C923  _text_bkg_fill                     ui
     0000C924  _ui_text_data                      ui
     0000CA2E  _vwf_current_mask                  ui
     0000CA2F  _vwf_current_rotate                ui
     0000CA30  _vwf_inverse_map                   ui
     0000CA31  _vwf_direction                     ui
     0000CA32  _vwf_current_font_desc             ui
     0000CA3A  _vwf_current_font_bank             ui
     0000CA3B  _vwf_current_font_idx              ui
     0000CA3C  _text_render_base_addr             ui
     0000CA3E  _text_scroll_addr                  ui
     0000CA40  _text_scroll_width                 ui
     0000CA41  _text_scroll_height                ui
     0000CA42  _text_scroll_fill                  ui
     0000CA43  _text_sound_mask                   ui
     0000CA44  _text_sound_bank                   ui
     0000CA45  _text_sound_data                   ui
     0000CA47  _overlay_priority                  ui
     0000CA48  _text_palette                      ui
ASxxxx Linker V03.00/V05.40 + sdld,  page 47.
Hexadecimal  [32-Bits]

Area                                    Addr        Size        Decimal Bytes (Attributes)
--------------------------------        ----        ----        ------- ----- ------------
_DATA                               0000C0A0    00001971 =        6513. bytes (REL,CON)

      Value  Global                              Global Defined In Module
      -----  --------------------------------   ------------------------
     0000CA4F  __itoa_fmt_len                     vm_ui_a
     0000CA50  .itoa_fmt_buf                      vm_ui_a
     0000CA53  _CTXS                              vm
     0000CB83  _first_ctx                         vm
     0000CB85  _free_ctxs                         vm
     0000CB87  _old_executing_ctx                 vm
     0000CB89  _executing_ctx                     vm
     0000CB8B  _vm_lock_state                     vm
     0000CB8C  _vm_loaded_state                   vm
     0000CB8D  _vm_exception_code                 vm
     0000CB8E  _vm_exception_params_length        vm
     0000CB8F  _vm_exception_params_bank          vm
     0000CB90  _vm_exception_params_offset        vm
     0000CB94  _script_memory                     vm
     0000D99A  _topdown_grid                      topdown
     0000D99B  ___rand_seed                       
     0000D9B9  _hUGE_current_wave                 hUGEDriver_obj
     0000D9B9  hUGE_current_wave                  hUGEDriver_obj
     0000D9BA  _hUGE_mute_mask                    hUGEDriver_obj
     0000DA01  ___call_banked_addr                far_ptr
     0000DA01  ___call_banked_ptr                 far_ptr
     0000DA03  ___call_banked_bank                far_ptr
     0000DA05  .int_0x48                          
     0000DA0D  ___current_metasprite              Metasprites
     0000DA0F  ___current_base_tile               Metasprites
     0000DA10  ___current_base_prop               Metasprites

ASxxxx Linker V03.00/V05.40 + sdld,  page 48.
Hexadecimal  [32-Bits]

Area                                    Addr        Size        Decimal Bytes (Attributes)
--------------------------------        ----        ----        ------- ----- ------------
_INITIALIZED                        0000DA11    00000018 =          24. bytes (REL,CON)

      Value  Global                              Global Defined In Module
      -----  --------------------------------   ------------------------
     0000DA11  _fade_style                        fade_manager
     0000DA12  _game_time                         game_time
     0000DA13  _PRN_PKT_START                     gbprinter
     0000DA21  _hide_sprites                      interrupts
     0000DA22  _show_actors_on_overlay            interrupts
     0000DA23  _overlay_cut_scanline              interrupts
     0000DA24  __submap_tile_offset               
     0000DA25  _triggers_len                      trigger
     0000DA26  _exchange_state                    vm_sio
     0000DA27  ___render_shadow_OAM               Metasprites
     0000DA28  __map_tile_offset                  SetTileMap

ASxxxx Linker V03.00/V05.40 + sdld,  page 49.
Hexadecimal  [32-Bits]

Area                                    Addr        Size        Decimal Bytes (Attributes)
--------------------------------        ----        ----        ------- ----- ------------
_HRAM12                             00000000    00000003 =           3. bytes (ABS,CON)

      Value  Global                              Global Defined In Module
      -----  --------------------------------   ------------------------
     0000FF90  __current_bank                     Runtime
     0000FF92  __shadow_OAM_base                  Runtime

ASxxxx Linker V03.00/V05.40 + sdld,  page 50.
Hexadecimal  [32-Bits]

Area                                    Addr        Size        Decimal Bytes (Attributes)
--------------------------------        ----        ----        ------- ----- ------------
_CODE_2                             00024000    00004000 =       16384. bytes (REL,CON)

      Value  Global                              Global Defined In Module
      -----  --------------------------------   ------------------------
     00024000  ___func_ACTOR                      actor
     00024000  _actors_init                       actor
     0002403A  _emote_offsets                     actor
     00024049  _emote_metasprite                  actor
     00024055  _player_init                       actor
     0002407B  _deactivate_actor                  actor
     000241DC  _activate_actor                    actor
     0002431B  _activate_actors_in_row            actor
     00024412  _activate_actors_in_col            actor
     00024563  _actor_set_frames                  actor
     000245B9  _actor_set_frame_offset            actor
     000245F4  _actor_get_frame_offset            actor
     00024606  _actor_set_anim_idle               actor
     00024634  _actor_set_anim_moving             actor
     00024665  _actor_set_dir                     actor
     000246CA  _actor_at_tile                     actor
     0002479E  _actor_in_front_of_player          actor
     00024852  _actor_overlapping_player          actor
     00024AEB  _actor_overlapping_bb              actor
     00024D0A  _actors_handle_player_collision    actor
     00024D96  _check_collision_in_direction      actor
     000255B4  ___func_VM_ACTOR                   vm_actor
     000255B4  _vm_actor_move_to                  vm_actor
     00025F50  _vm_actor_move_cancel              vm_actor
     00025F86  _vm_actor_activate                 vm_actor
     00025FD7  _vm_actor_deactivate               vm_actor
     00026028  _vm_actor_begin_update             vm_actor
     000260AF  _vm_actor_terminate_update         vm_actor
     000260F6  _vm_actor_set_dir                  vm_actor
     0002613F  _vm_actor_set_anim                 vm_actor
     000261CD  _vm_actor_set_pos                  vm_actor
     00026247  _vm_actor_get_pos                  vm_actor
     000262B6  _vm_actor_get_dir                  vm_actor
     00026330  _vm_actor_get_angle                vm_actor
     000263B1  _vm_actor_emote                    vm_actor
     00026475  _vm_actor_set_bounds               vm_actor
     000264D3  _vm_actor_set_spritesheet          vm_actor
     0002659D  _vm_actor_replace_tile             vm_actor
     00026608  _vm_actor_set_anim_tick            vm_actor
     00026646  _vm_actor_set_move_speed           vm_actor
     00026684  _vm_actor_set_anim_frame           vm_actor
     000266C8  _vm_actor_get_anim_frame           vm_actor
     00026712  _vm_actor_set_anim_set             vm_actor
     0002679A  _vm_actor_set_spritesheet_by_ref   vm_actor
     000268A7  _vm_actor_set_flags                vm_actor
     00026955  ___func_scene_3_actors             scene_3_actors
     00026955  _scene_3_actors                    scene_3_actors
     00026AF5  ___func_sound_gbfx2_sav_00         sound_gbfx2_sav
     00026AF5  ___func_sound_gbfx2_sav_01         sound_gbfx2_sav
     00026AF5  ___func_sound_gbfx2_sav_02         sound_gbfx2_sav
ASxxxx Linker V03.00/V05.40 + sdld,  page 51.
Hexadecimal  [32-Bits]

Area                                    Addr        Size        Decimal Bytes (Attributes)
--------------------------------        ----        ----        ------- ----- ------------
_CODE_2                             00024000    00004000 =       16384. bytes (REL,CON)

      Value  Global                              Global Defined In Module
      -----  --------------------------------   ------------------------
     00026AF5  ___func_sound_gbfx2_sav_03         sound_gbfx2_sav
     00026AF5  ___func_sound_gbfx2_sav_04         sound_gbfx2_sav
     00026AF5  ___func_sound_gbfx2_sav_05         sound_gbfx2_sav
     00026AF5  ___func_sound_gbfx2_sav_06         sound_gbfx2_sav
     00026AF5  ___func_sound_gbfx2_sav_07         sound_gbfx2_sav
     00026AF5  ___func_sound_gbfx2_sav_08         sound_gbfx2_sav
     00026AF5  ___func_sound_gbfx2_sav_09         sound_gbfx2_sav
     00026AF5  ___func_sound_gbfx2_sav_10         sound_gbfx2_sav
     00026AF5  ___func_sound_gbfx2_sav_11         sound_gbfx2_sav
     00026AF5  ___func_sound_gbfx2_sav_12         sound_gbfx2_sav
     00026AF5  ___func_sound_gbfx2_sav_13         sound_gbfx2_sav
     00026AF5  ___func_sound_gbfx2_sav_14         sound_gbfx2_sav
     00026AF5  ___func_sound_gbfx2_sav_15         sound_gbfx2_sav
     00026AF5  ___func_sound_gbfx2_sav_16         sound_gbfx2_sav
     00026AF5  ___func_sound_gbfx2_sav_17         sound_gbfx2_sav
     00026AF5  ___func_sound_gbfx2_sav_18         sound_gbfx2_sav
     00026AF5  ___func_sound_gbfx2_sav_19         sound_gbfx2_sav
     00026AF5  ___func_sound_gbfx2_sav_20         sound_gbfx2_sav
     00026AF5  ___func_sound_gbfx2_sav_21         sound_gbfx2_sav
     00026AF5  ___func_sound_gbfx2_sav_22         sound_gbfx2_sav
     00026AF5  ___func_sound_gbfx2_sav_23         sound_gbfx2_sav
     00026AF5  ___func_sound_gbfx2_sav_24         sound_gbfx2_sav
     00026AF5  ___func_sound_gbfx2_sav_25         sound_gbfx2_sav
     00026AF5  ___func_sound_gbfx2_sav_26         sound_gbfx2_sav
     00026AF5  ___func_sound_gbfx2_sav_27         sound_gbfx2_sav
     00026AF5  ___func_sound_gbfx2_sav_28         sound_gbfx2_sav
     00026AF5  ___func_sound_gbfx2_sav_29         sound_gbfx2_sav
     00026AF5  ___func_sound_gbfx2_sav_30         sound_gbfx2_sav
     00026AF5  ___func_sound_gbfx2_sav_31         sound_gbfx2_sav
     00026AF5  ___func_sound_gbfx2_sav_32         sound_gbfx2_sav
     00026AF5  ___func_sound_gbfx2_sav_33         sound_gbfx2_sav
     00026AF5  ___func_sound_gbfx2_sav_34         sound_gbfx2_sav
     00026AF5  ___func_sound_gbfx2_sav_35         sound_gbfx2_sav
     00026AF5  ___func_sound_gbfx2_sav_36         sound_gbfx2_sav
     00026AF5  ___func_sound_gbfx2_sav_37         sound_gbfx2_sav
     00026AF5  ___func_sound_gbfx2_sav_38         sound_gbfx2_sav
     00026AF5  ___func_sound_gbfx2_sav_39         sound_gbfx2_sav
     00026AF5  ___func_sound_gbfx2_sav_40         sound_gbfx2_sav
     00026AF5  ___func_sound_gbfx2_sav_41         sound_gbfx2_sav
     00026AF5  ___func_sound_gbfx2_sav_42         sound_gbfx2_sav
     00026AF5  ___func_sound_gbfx2_sav_43         sound_gbfx2_sav
     00026AF5  ___func_sound_gbfx2_sav_44         sound_gbfx2_sav
     00026AF5  ___func_sound_gbfx2_sav_45         sound_gbfx2_sav
     00026AF5  ___func_sound_gbfx2_sav_46         sound_gbfx2_sav
     00026AF5  ___func_sound_gbfx2_sav_47         sound_gbfx2_sav
     00026AF5  ___func_sound_gbfx2_sav_48         sound_gbfx2_sav
     00026AF5  ___func_sound_gbfx2_sav_49         sound_gbfx2_sav
     00026AF5  ___func_sound_gbfx2_sav_50         sound_gbfx2_sav
     00026AF5  ___func_sound_gbfx2_sav_51         sound_gbfx2_sav
     00026AF5  ___func_sound_gbfx2_sav_52         sound_gbfx2_sav
     00026AF5  ___func_sound_gbfx2_sav_53         sound_gbfx2_sav
ASxxxx Linker V03.00/V05.40 + sdld,  page 52.
Hexadecimal  [32-Bits]

Area                                    Addr        Size        Decimal Bytes (Attributes)
--------------------------------        ----        ----        ------- ----- ------------
_CODE_2                             00024000    00004000 =       16384. bytes (REL,CON)

      Value  Global                              Global Defined In Module
      -----  --------------------------------   ------------------------
     00026AF5  ___func_sound_gbfx2_sav_54         sound_gbfx2_sav
     00026AF5  ___func_sound_gbfx2_sav_55         sound_gbfx2_sav
     00026AF5  ___func_sound_gbfx2_sav_56         sound_gbfx2_sav
     00026AF5  ___func_sound_gbfx2_sav_57         sound_gbfx2_sav
     00026AF5  ___func_sound_gbfx2_sav_58         sound_gbfx2_sav
     00026AF5  ___func_sound_gbfx2_sav_59         sound_gbfx2_sav
     00026AF5  _sound_gbfx2_sav_00                sound_gbfx2_sav
     00026B2D  _sound_gbfx2_sav_01                sound_gbfx2_sav
     00026B5D  _sound_gbfx2_sav_02                sound_gbfx2_sav
     00026B79  _sound_gbfx2_sav_03                sound_gbfx2_sav
     00026BD5  _sound_gbfx2_sav_04                sound_gbfx2_sav
     00026C08  _sound_gbfx2_sav_05                sound_gbfx2_sav
     00026C8D  _sound_gbfx2_sav_06                sound_gbfx2_sav
     00026D1F  _sound_gbfx2_sav_07                sound_gbfx2_sav
     00026D32  _sound_gbfx2_sav_08                sound_gbfx2_sav
     00026D45  _sound_gbfx2_sav_09                sound_gbfx2_sav
     00026D7E  _sound_gbfx2_sav_10                sound_gbfx2_sav
     00026DAE  _sound_gbfx2_sav_11                sound_gbfx2_sav
     00026E51  _sound_gbfx2_sav_12                sound_gbfx2_sav
     00026EAB  _sound_gbfx2_sav_13                sound_gbfx2_sav
     00026F43  _sound_gbfx2_sav_14                sound_gbfx2_sav
     00026FF0  _sound_gbfx2_sav_15                sound_gbfx2_sav
     00027023  _sound_gbfx2_sav_16                sound_gbfx2_sav
     00027056  _sound_gbfx2_sav_17                sound_gbfx2_sav
     00027089  _sound_gbfx2_sav_18                sound_gbfx2_sav
     000270AA  _sound_gbfx2_sav_19                sound_gbfx2_sav
     00027111  _sound_gbfx2_sav_20                sound_gbfx2_sav
     0002714E  _sound_gbfx2_sav_21                sound_gbfx2_sav
     000271AD  _sound_gbfx2_sav_22                sound_gbfx2_sav
     00027233  _sound_gbfx2_sav_23                sound_gbfx2_sav
     0002724E  _sound_gbfx2_sav_24                sound_gbfx2_sav
     0002727B  _sound_gbfx2_sav_25                sound_gbfx2_sav
     000272AE  _sound_gbfx2_sav_26                sound_gbfx2_sav
     000272F1  _sound_gbfx2_sav_27                sound_gbfx2_sav
     00027358  _sound_gbfx2_sav_28                sound_gbfx2_sav
     000273AA  _sound_gbfx2_sav_29                sound_gbfx2_sav
     000273EE  _sound_gbfx2_sav_30                sound_gbfx2_sav
     0002743A  _sound_gbfx2_sav_31                sound_gbfx2_sav
     0002746C  _sound_gbfx2_sav_32                sound_gbfx2_sav
     000274B3  _sound_gbfx2_sav_33                sound_gbfx2_sav
     000274F4  _sound_gbfx2_sav_34                sound_gbfx2_sav
     0002757D  _sound_gbfx2_sav_35                sound_gbfx2_sav
     0002762A  _sound_gbfx2_sav_36                sound_gbfx2_sav
     000276B9  _sound_gbfx2_sav_37                sound_gbfx2_sav
     0002772D  _sound_gbfx2_sav_38                sound_gbfx2_sav
     000277A8  _sound_gbfx2_sav_39                sound_gbfx2_sav
     0002781C  _sound_gbfx2_sav_40                sound_gbfx2_sav
     00027872  _sound_gbfx2_sav_41                sound_gbfx2_sav
     000278A2  _sound_gbfx2_sav_42                sound_gbfx2_sav
     00027907  _sound_gbfx2_sav_43                sound_gbfx2_sav
     000279B9  _sound_gbfx2_sav_44                sound_gbfx2_sav
ASxxxx Linker V03.00/V05.40 + sdld,  page 53.
Hexadecimal  [32-Bits]

Area                                    Addr        Size        Decimal Bytes (Attributes)
--------------------------------        ----        ----        ------- ----- ------------
_CODE_2                             00024000    00004000 =       16384. bytes (REL,CON)

      Value  Global                              Global Defined In Module
      -----  --------------------------------   ------------------------
     00027AEE  _sound_gbfx2_sav_45                sound_gbfx2_sav
     00027B76  _sound_gbfx2_sav_46                sound_gbfx2_sav
     00027BB2  _sound_gbfx2_sav_47                sound_gbfx2_sav
     00027BDE  _sound_gbfx2_sav_48                sound_gbfx2_sav
     00027C25  _sound_gbfx2_sav_49                sound_gbfx2_sav
     00027CD7  _sound_gbfx2_sav_50                sound_gbfx2_sav
     00027D1B  _sound_gbfx2_sav_51                sound_gbfx2_sav
     00027D4D  _sound_gbfx2_sav_52                sound_gbfx2_sav
     00027D70  _sound_gbfx2_sav_53                sound_gbfx2_sav
     00027DA0  _sound_gbfx2_sav_54                sound_gbfx2_sav
     00027E52  _sound_gbfx2_sav_55                sound_gbfx2_sav
     00027E71  _sound_gbfx2_sav_56                sound_gbfx2_sav
     00027EC9  _sound_gbfx2_sav_57                sound_gbfx2_sav
     00027F48  _sound_gbfx2_sav_58                sound_gbfx2_sav
     00027FAE  _sound_gbfx2_sav_59                sound_gbfx2_sav
     00027FCA  _trigger_0_interact                trigger_0_interact
ASxxxx Linker V03.00/V05.40 + sdld,  page 54.
Hexadecimal  [32-Bits]

Area                                    Addr        Size        Decimal Bytes (Attributes)
--------------------------------        ----        ----        ------- ----- ------------
_CODE_7                             00074000    0000370F =       14095. bytes (REL,CON)

      Value  Global                              Global Defined In Module
      -----  --------------------------------   ------------------------
     00074000  _bootstrap_script                  
     0007400B  _camera_init                       camera
     00074031  _events_init                       events
     00074071  _timers_init                       events
     000740B1  _restore_sram_bank                 flasher
     000740E7  _restore_sram                      flasher
     000740FD  _save_sram                         flasher
     00074129  _input_init                        input
     0007414F  _remove_LCD_ISRs                   interrupts
     0007416A  _palette_init                      palette
     00074178  _parallax_init                     parallax
     00074198  _scroll_rect                       
     000741D5  _SIO_init                          sio
     000741FE  ___func_VM_GBPRINTER               vm_gbprinter
     000741FE  _vm_print_detect                   vm_gbprinter
     0007424D  _vm_print_overlay                  vm_gbprinter
     000742A2  ___func_VM_LOAD_SAVE               vm_load_save
     000742A2  _vm_save_clear                     vm_load_save
     000742B1  _vm_save_peek                      vm_load_save
     00074333  ___func_VM_SCENE                   vm_scene
     00074333  _vm_scene_push                     vm_scene
     000743A9  _vm_scene_pop                      vm_scene
     000743B7  _vm_scene_pop_all                  vm_scene
     000743C2  _vm_scene_stack_reset              vm_scene
     000743CB  _actor_0_interact                  actor_0_interact
     000743F4  _actor_1_interact                  actor_1_interact
     0007441D  _actor_2_interact                  actor_2_interact
     00074446  _actor_21_interact                 actor_21_interact
     0007446F  _actor_22_interact                 actor_22_interact
     000744AF  _actor_23_interact                 actor_23_interact
     000744EF  _actor_25_interact                 actor_25_interact
     0007452F  _actor_26_interact                 actor_26_interact
     0007456F  _actor_27_interact                 actor_27_interact
     000745AF  _actor_28_interact                 actor_28_interact
     000745EF  _actor_29_interact                 actor_29_interact
     00074618  _actor_3_interact                  actor_3_interact
     00074641  _actor_30_interact                 actor_30_interact
     0007466A  _actor_32_interact                 actor_32_interact
     00074693  _actor_33_interact                 actor_33_interact
     000746BC  _actor_34_interact                 actor_34_interact
     000746FC  _actor_35_interact                 actor_35_interact
     0007473C  _actor_38_interact                 actor_38_interact
     00074765  _actor_39_interact                 actor_39_interact
     000747D4  _actor_4_interact                  actor_4_interact
     000747FD  _actor_40_interact                 actor_40_interact
     0007485F  _actor_41_interact                 actor_41_interact
     00074900  _actor_42_interact                 actor_42_interact
     0007497E  _actor_44_interact                 actor_44_interact
     000749FB  _actor_45_interact                 actor_45_interact
     00074A3B  _actor_47_interact                 actor_47_interact
ASxxxx Linker V03.00/V05.40 + sdld,  page 55.
Hexadecimal  [32-Bits]

Area                                    Addr        Size        Decimal Bytes (Attributes)
--------------------------------        ----        ----        ------- ----- ------------
_CODE_7                             00074000    0000370F =       14095. bytes (REL,CON)

      Value  Global                              Global Defined In Module
      -----  --------------------------------   ------------------------
     00074AB7  _actor_48_interact                 actor_48_interact
     00074B30  _actor_49_interact                 actor_49_interact
     00074BF2  _actor_50_interact                 actor_50_interact
     00074C32  _actor_51_interact                 actor_51_interact
     00074C8D  _actor_52_interact                 actor_52_interact
     00074CE3  _actor_53_interact                 actor_53_interact
     00074D38  _actor_56_interact                 actor_56_interact
     00074D91  _actor_57_interact                 actor_57_interact
     00074DDD  _actor_59_interact                 actor_59_interact
     00074E46  _actor_6_interact                  actor_6_interact
     00074E86  _actor_61_interact                 actor_61_interact
     00074EC5  _actor_66_interact                 actor_66_interact
     00074F0E  _actor_67_interact                 actor_67_interact
     00074F5A  _actor_68_interact                 actor_68_interact
     00074FB3  _actor_69_interact                 actor_69_interact
     00075004  _actor_7_interact                  actor_7_interact
     0007507A  _actor_8_interact                  actor_8_interact
     000750BA  _actor_9_interact                  actor_9_interact
     000750F9  ___func_bg_logo_gameoff2024        bg_logo_gameoff2024
     000750F9  _bg_logo_gameoff2024               bg_logo_gameoff2024
     00075107  ___func_bg_scene_01                bg_scene_01
     00075107  _bg_scene_01                       bg_scene_01
     00075115  ___func_bg_scene_02                bg_scene_02
     00075115  _bg_scene_02                       bg_scene_02
     00075123  ___func_bg_scene_03                bg_scene_03
     00075123  _bg_scene_03                       bg_scene_03
     00075131  ___func_bg_scene_04                bg_scene_04
     00075131  _bg_scene_04                       bg_scene_04
     0007513F  ___func_bg_scene_05                bg_scene_05
     0007513F  _bg_scene_05                       bg_scene_05
     0007514D  ___func_bg_scene_06                bg_scene_06
     0007514D  _bg_scene_06                       bg_scene_06
     0007515B  ___func_bg_scene_07                bg_scene_07
     0007515B  _bg_scene_07                       bg_scene_07
     00075169  ___func_bg_scene_08                bg_scene_08
     00075169  _bg_scene_08                       bg_scene_08
     00075177  ___func_bg_scene_09                bg_scene_09
     00075177  _bg_scene_09                       bg_scene_09
     00075185  ___func_bg_scene_title             bg_scene_title
     00075185  _bg_scene_title                    bg_scene_title
     00075193  ___func_bg_scenewelcome            bg_scenewelcome
     00075193  _bg_scenewelcome                   bg_scenewelcome
     000751A1  ___func_cursor_image               cursor_image
     000751A1  _cursor_image                      cursor_image
     000751B1  ___func_palette_0                  palette_0
     000751B1  _palette_0                         palette_0
     000751B4  ___func_palette_1                  palette_1
     000751B4  _palette_1                         palette_1
     000751B7  _scene_0_init                      scene_0_init
     00075229  ___func_scene_0_sprites            scene_0_sprites
     00075229  _scene_0_sprites                   scene_0_sprites
ASxxxx Linker V03.00/V05.40 + sdld,  page 56.
Hexadecimal  [32-Bits]

Area                                    Addr        Size        Decimal Bytes (Attributes)
--------------------------------        ----        ----        ------- ----- ------------
_CODE_7                             00074000    0000370F =       14095. bytes (REL,CON)

      Value  Global                              Global Defined In Module
      -----  --------------------------------   ------------------------
     0007523E  ___func_scene_0_triggers           scene_0_triggers
     0007523E  _scene_0_triggers                  scene_0_triggers
     00075246  ___func_scene_0                    scene_0
     00075246  _scene_0                           scene_0
     00075281  _scene_1_init                      scene_1_init
     000752DF  ___func_scene_1                    scene_1
     000752DF  _scene_1                           scene_1
     0007531A  _scene_10_init                     scene_10_init
     0007535C  ___func_scene_10_triggers          scene_10_triggers
     0007535C  _scene_10_triggers                 scene_10_triggers
     00075364  ___func_scene_10                   scene_10
     00075364  _scene_10                          scene_10
     0007539F  _scene_11_init                     scene_11_init
     000753D7  ___func_scene_11_sprites           scene_11_sprites
     000753D7  _scene_11_sprites                  scene_11_sprites
     000753E6  ___func_scene_11_triggers          scene_11_triggers
     000753E6  _scene_11_triggers                 scene_11_triggers
     000753F6  ___func_scene_11                   scene_11
     000753F6  _scene_11                          scene_11
     00075431  _scene_12_init                     scene_12_init
     00075469  ___func_scene_12_sprites           scene_12_sprites
     00075469  _scene_12_sprites                  scene_12_sprites
     00075478  ___func_scene_12_triggers          scene_12_triggers
     00075478  _scene_12_triggers                 scene_12_triggers
     00075480  ___func_scene_12                   scene_12
     00075480  _scene_12                          scene_12
     000754BB  _scene_13_init                     scene_13_init
     000754D4  ___func_scene_13_sprites           scene_13_sprites
     000754D4  _scene_13_sprites                  scene_13_sprites
     000754DA  ___func_scene_13_triggers          scene_13_triggers
     000754DA  _scene_13_triggers                 scene_13_triggers
     000754E2  ___func_scene_13                   scene_13
     000754E2  _scene_13                          scene_13
     0007551D  _scene_14_init                     scene_14_init
     00075555  ___func_scene_14_triggers          scene_14_triggers
     00075555  _scene_14_triggers                 scene_14_triggers
     0007555D  ___func_scene_14                   scene_14
     0007555D  _scene_14                          scene_14
     00075598  _scene_15_init                     scene_15_init
     000755D0  ___func_scene_15_sprites           scene_15_sprites
     000755D0  _scene_15_sprites                  scene_15_sprites
     000755D9  ___func_scene_15_triggers          scene_15_triggers
     000755D9  _scene_15_triggers                 scene_15_triggers
     000755E1  ___func_scene_15                   scene_15
     000755E1  _scene_15                          scene_15
     0007561C  _scene_16_init                     scene_16_init
     00075629  ___func_scene_16                   scene_16
     00075629  _scene_16                          scene_16
     00075664  ___func_scene_17_actors            scene_17_actors
     00075664  _scene_17_actors                   scene_17_actors
     00075698  _scene_17_init                     scene_17_init
ASxxxx Linker V03.00/V05.40 + sdld,  page 57.
Hexadecimal  [32-Bits]

Area                                    Addr        Size        Decimal Bytes (Attributes)
--------------------------------        ----        ----        ------- ----- ------------
_CODE_7                             00074000    0000370F =       14095. bytes (REL,CON)

      Value  Global                              Global Defined In Module
      -----  --------------------------------   ------------------------
     000756F6  ___func_scene_17_sprites           scene_17_sprites
     000756F6  _scene_17_sprites                  scene_17_sprites
     000756F9  ___func_scene_17                   scene_17
     000756F9  _scene_17                          scene_17
     00075734  _scene_2_init                      scene_2_init
     0007578F  ___func_scene_2                    scene_2
     0007578F  _scene_2                           scene_2
     000757CA  _scene_3_init                      scene_3_init
     00075807  ___func_scene_3_sprites            scene_3_sprites
     00075807  _scene_3_sprites                   scene_3_sprites
     0007581C  ___func_scene_3_triggers           scene_3_triggers
     0007581C  _scene_3_triggers                  scene_3_triggers
     0007583C  ___func_scene_3                    scene_3
     0007583C  _scene_3                           scene_3
     00075877  _scene_4_init                      scene_4_init
     00075884  ___func_scene_4_triggers           scene_4_triggers
     00075884  _scene_4_triggers                  scene_4_triggers
     00075894  ___func_scene_4                    scene_4
     00075894  _scene_4                           scene_4
     000758CF  _scene_5_init                      scene_5_init
     0007592A  ___func_scene_5                    scene_5
     0007592A  _scene_5                           scene_5
     00075965  _scene_6_init                      scene_6_init
     00075977  ___func_scene_6_sprites            scene_6_sprites
     00075977  _scene_6_sprites                   scene_6_sprites
     00075983  ___func_scene_6_triggers           scene_6_triggers
     00075983  _scene_6_triggers                  scene_6_triggers
     00075993  ___func_scene_6                    scene_6
     00075993  _scene_6                           scene_6
     000759CE  ___func_scene_7_sprites            scene_7_sprites
     000759CE  _scene_7_sprites                   scene_7_sprites
     000759E0  ___func_scene_7_triggers           scene_7_triggers
     000759E0  _scene_7_triggers                  scene_7_triggers
     00075A40  ___func_scene_7                    scene_7
     00075A40  _scene_7                           scene_7
     00075A7B  _scene_9_init                      scene_9_init
     00075AD2  ___func_scene_9                    scene_9
     00075AD2  _scene_9                           scene_9
     00075B0D  _script_engine_init                
     00075B21  ___func_sound_legacy_0             sound_legacy_0
     00075B21  _sound_legacy_0                    sound_legacy_0
     00075B34  ___func_sprite_actor_animated_bu   sprite_actor_animated_bubbl_
     00075B34  _sprite_actor_animated_bubbl_til   sprite_actor_animated_bubbl_
     00075B96  ___func_sprite_actor_animated_bu   sprite_actor_animated_bubbl
     00075B96  _sprite_actor_animated_bubbl_met   sprite_actor_animated_bubbl
     00075B9A  _sprite_actor_animated_bubbl_met   sprite_actor_animated_bubbl
     00075BA2  _sprite_actor_animated_bubbl_met   sprite_actor_animated_bubbl
     00075BAE  _sprite_actor_animated_bubbl_met   sprite_actor_animated_bubbl
     00075BB4  _sprite_actor_animated_bubbl_ani   sprite_actor_animated_bubbl
     00075BC4  _sprite_actor_animated_bubbl_ani   sprite_actor_animated_bubbl
     00075BC6  _sprite_actor_animated_bubbl       sprite_actor_animated_bubbl
ASxxxx Linker V03.00/V05.40 + sdld,  page 58.
Hexadecimal  [32-Bits]

Area                                    Addr        Size        Decimal Bytes (Attributes)
--------------------------------        ----        ----        ------- ----- ------------
_CODE_7                             00074000    0000370F =       14095. bytes (REL,CON)

      Value  Global                              Global Defined In Module
      -----  --------------------------------   ------------------------
     00075BD9  ___func_sprite_actor_animated_gi   sprite_actor_animated_gir_v_
     00075BD9  _sprite_actor_animated_gir_v_til   sprite_actor_animated_gir_v_
     00075C5B  ___func_sprite_actor_animated_gi   sprite_actor_animated_gir_v
     00075C5B  _sprite_actor_animated_gir_v_met   sprite_actor_animated_gir_v
     00075C67  _sprite_actor_animated_gir_v_met   sprite_actor_animated_gir_v
     00075C73  _sprite_actor_animated_gir_v_met   sprite_actor_animated_gir_v
     00075C7F  _sprite_actor_animated_gir_v_met   sprite_actor_animated_gir_v
     00075C8B  _sprite_actor_animated_gir_v_met   sprite_actor_animated_gir_v
     00075C97  _sprite_actor_animated_gir_v_met   sprite_actor_animated_gir_v
     00075CA3  _sprite_actor_animated_gir_v_met   sprite_actor_animated_gir_v
     00075CB7  _sprite_actor_animated_gir_v_ani   sprite_actor_animated_gir_v
     00075CC7  _sprite_actor_animated_gir_v_ani   sprite_actor_animated_gir_v
     00075CC9  _sprite_actor_animated_gir_v       sprite_actor_animated_gir_v
     00075CDC  ___func_sprite_actor_animated      sprite_actor_animated
     00075CDC  _sprite_actor_animated_metasprit   sprite_actor_animated
     00075CE8  _sprite_actor_animated_metasprit   sprite_actor_animated
     00075CF4  _sprite_actor_animated_metasprit   sprite_actor_animated
     00075D00  _sprite_actor_animated_metasprit   sprite_actor_animated
     00075D0C  _sprite_actor_animated_metasprit   sprite_actor_animated
     00075D18  _sprite_actor_animated_metasprit   sprite_actor_animated
     00075D24  _sprite_actor_animated_metasprit   sprite_actor_animated
     00075D30  _sprite_actor_animated_metasprit   sprite_actor_animated
     00075D3C  _sprite_actor_animated_metasprit   sprite_actor_animated
     00075D54  _sprite_actor_animated_animation   sprite_actor_animated
     00075D64  _sprite_actor_animated_animation   sprite_actor_animated
     00075D66  _sprite_actor_animated             sprite_actor_animated
     00075D79  ___func_sprite_actor_boy_tileset   sprite_actor_boy_tileset
     00075D79  _sprite_actor_boy_tileset          sprite_actor_boy_tileset
     00075DBB  ___func_sprite_actor_boy           sprite_actor_boy
     00075DBB  _sprite_actor_boy_metasprite_0     sprite_actor_boy
     00075DC7  _sprite_actor_boy_metasprite_1     sprite_actor_boy
     00075DD3  _sprite_actor_boy_metasprite_2     sprite_actor_boy
     00075DD7  _sprite_actor_boy_metasprites      sprite_actor_boy
     00075DDD  _sprite_actor_boy_animations       sprite_actor_boy
     00075DED  _sprite_actor_boy_animations_loo   sprite_actor_boy
     00075DEF  _sprite_actor_boy                  sprite_actor_boy
     00075E02  ___func_sprite_actor_cat_tileset   sprite_actor_cat_tileset
     00075E02  _sprite_actor_cat_tileset          sprite_actor_cat_tileset
     00075E64  ___func_sprite_actor_cat           sprite_actor_cat
     00075E64  _sprite_actor_cat_metasprite_0     sprite_actor_cat
     00075E70  _sprite_actor_cat_metasprite_1     sprite_actor_cat
     00075E7C  _sprite_actor_cat_metasprite_2     sprite_actor_cat
     00075E80  _sprite_actor_cat_metasprites      sprite_actor_cat
     00075E86  _sprite_actor_cat_animations       sprite_actor_cat
     00075E96  _sprite_actor_cat_animations_loo   sprite_actor_cat
     00075E98  _sprite_actor_cat                  sprite_actor_cat
     00075EAB  ___func_sprite_actor_girl_tilese   sprite_actor_girl_tileset
     00075EAB  _sprite_actor_girl_tileset         sprite_actor_girl_tileset
     00075EED  ___func_sprite_actor_girl          sprite_actor_girl
     00075EED  _sprite_actor_girl_metasprite_0    sprite_actor_girl
     00075EF9  _sprite_actor_girl_metasprite_1    sprite_actor_girl
ASxxxx Linker V03.00/V05.40 + sdld,  page 59.
Hexadecimal  [32-Bits]

Area                                    Addr        Size        Decimal Bytes (Attributes)
--------------------------------        ----        ----        ------- ----- ------------
_CODE_7                             00074000    0000370F =       14095. bytes (REL,CON)

      Value  Global                              Global Defined In Module
      -----  --------------------------------   ------------------------
     00075F05  _sprite_actor_girl_metasprite_2    sprite_actor_girl
     00075F09  _sprite_actor_girl_metasprites     sprite_actor_girl
     00075F0F  _sprite_actor_girl_animations      sprite_actor_girl
     00075F1F  _sprite_actor_girl_animations_lo   sprite_actor_girl
     00075F21  _sprite_actor_girl                 sprite_actor_girl
     00075F34  ___func_sprite_actor_grass_2_til   sprite_actor_grass_2_tileset
     00075F34  _sprite_actor_grass_2_tileset      sprite_actor_grass_2_tileset
     00075FF6  ___func_sprite_actor_grass_2       sprite_actor_grass_2
     00075FF6  _sprite_actor_grass_2_metasprite   sprite_actor_grass_2
     00076002  _sprite_actor_grass_2_metasprite   sprite_actor_grass_2
     0007600E  _sprite_actor_grass_2_metasprite   sprite_actor_grass_2
     0007601A  _sprite_actor_grass_2_metasprite   sprite_actor_grass_2
     0007601E  _sprite_actor_grass_2_metasprite   sprite_actor_grass_2
     00076026  _sprite_actor_grass_2_animations   sprite_actor_grass_2
     00076036  _sprite_actor_grass_2_animations   sprite_actor_grass_2
     00076038  _sprite_actor_grass_2              sprite_actor_grass_2
     0007604B  ___func_sprite_actor_grass_tiles   sprite_actor_grass_tileset
     0007604B  _sprite_actor_grass_tileset        sprite_actor_grass_tileset
     0007610D  ___func_sprite_actor_grass         sprite_actor_grass
     0007610D  _sprite_actor_grass_metasprite_0   sprite_actor_grass
     00076119  _sprite_actor_grass_metasprite_1   sprite_actor_grass
     00076125  _sprite_actor_grass_metasprite_2   sprite_actor_grass
     00076131  _sprite_actor_grass_metasprite_3   sprite_actor_grass
     00076135  _sprite_actor_grass_metasprites    sprite_actor_grass
     0007613D  _sprite_actor_grass_animations     sprite_actor_grass
     0007614D  _sprite_actor_grass_animations_l   sprite_actor_grass
     0007614F  _sprite_actor_grass                sprite_actor_grass
     00076162  ___func_sprite_actor_handicap_ma   sprite_actor_handicap_man_ti
     00076162  _sprite_actor_handicap_man_tiles   sprite_actor_handicap_man_ti
     000761A4  ___func_sprite_actor_handicap_ma   sprite_actor_handicap_man
     000761A4  _sprite_actor_handicap_man_metas   sprite_actor_handicap_man
     000761B0  _sprite_actor_handicap_man_metas   sprite_actor_handicap_man
     000761BC  _sprite_actor_handicap_man_metas   sprite_actor_handicap_man
     000761C0  _sprite_actor_handicap_man_metas   sprite_actor_handicap_man
     000761C6  _sprite_actor_handicap_man_anima   sprite_actor_handicap_man
     000761D6  _sprite_actor_handicap_man_anima   sprite_actor_handicap_man
     000761D8  _sprite_actor_handicap_man         sprite_actor_handicap_man
     000761EB  ___func_sprite_actor_light_tiles   sprite_actor_light_tileset
     000761EB  _sprite_actor_light_tileset        sprite_actor_light_tileset
     0007624D  ___func_sprite_actor_light         sprite_actor_light
     0007624D  _sprite_actor_light_metasprite_0   sprite_actor_light
     00076259  _sprite_actor_light_metasprite_1   sprite_actor_light
     00076265  _sprite_actor_light_metasprite_2   sprite_actor_light
     00076271  _sprite_actor_light_metasprite_3   sprite_actor_light
     00076275  _sprite_actor_light_metasprites    sprite_actor_light
     0007627D  _sprite_actor_light_animations     sprite_actor_light
     0007628D  _sprite_actor_light_animations_l   sprite_actor_light
     0007628F  _sprite_actor_light                sprite_actor_light
     000762A2  ___func_sprite_actor_music_tiles   sprite_actor_music_tileset
     000762A2  _sprite_actor_music_tileset        sprite_actor_music_tileset
     00076364  ___func_sprite_actor_music         sprite_actor_music
ASxxxx Linker V03.00/V05.40 + sdld,  page 60.
Hexadecimal  [32-Bits]

Area                                    Addr        Size        Decimal Bytes (Attributes)
--------------------------------        ----        ----        ------- ----- ------------
_CODE_7                             00074000    0000370F =       14095. bytes (REL,CON)

      Value  Global                              Global Defined In Module
      -----  --------------------------------   ------------------------
     00076364  _sprite_actor_music_metasprite_0   sprite_actor_music
     00076370  _sprite_actor_music_metasprite_1   sprite_actor_music
     0007637C  _sprite_actor_music_metasprite_2   sprite_actor_music
     00076388  _sprite_actor_music_metasprite_3   sprite_actor_music
     0007638C  _sprite_actor_music_metasprites    sprite_actor_music
     00076394  _sprite_actor_music_animations     sprite_actor_music
     000763A4  _sprite_actor_music_animations_l   sprite_actor_music
     000763A6  _sprite_actor_music                sprite_actor_music
     000763B9  ___func_sprite_actor_old_man_2_t   sprite_actor_old_man_2_tiles
     000763B9  _sprite_actor_old_man_2_tileset    sprite_actor_old_man_2_tiles
     0007643B  ___func_sprite_actor_old_man_2     sprite_actor_old_man_2
     0007643B  _sprite_actor_old_man_2_metaspri   sprite_actor_old_man_2
     00076447  _sprite_actor_old_man_2_metaspri   sprite_actor_old_man_2
     00076453  _sprite_actor_old_man_2_metaspri   sprite_actor_old_man_2
     00076457  _sprite_actor_old_man_2_metaspri   sprite_actor_old_man_2
     0007645D  _sprite_actor_old_man_2_animatio   sprite_actor_old_man_2
     0007646D  _sprite_actor_old_man_2_animatio   sprite_actor_old_man_2
     0007646F  _sprite_actor_old_man_2            sprite_actor_old_man_2
     00076482  ___func_sprite_actor_old_man_til   sprite_actor_old_man_tileset
     00076482  _sprite_actor_old_man_tileset      sprite_actor_old_man_tileset
     00076504  ___func_sprite_actor_old_man       sprite_actor_old_man
     00076504  _sprite_actor_old_man_metasprite   sprite_actor_old_man
     00076510  _sprite_actor_old_man_metasprite   sprite_actor_old_man
     0007651C  _sprite_actor_old_man_metasprite   sprite_actor_old_man
     00076520  _sprite_actor_old_man_metasprite   sprite_actor_old_man
     00076526  _sprite_actor_old_man_animations   sprite_actor_old_man
     00076536  _sprite_actor_old_man_animations   sprite_actor_old_man
     00076538  _sprite_actor_old_man              sprite_actor_old_man
     0007654B  ___func_sprite_actor_woman_tiles   sprite_actor_woman_tileset
     0007654B  _sprite_actor_woman_tileset        sprite_actor_woman_tileset
     000765CD  ___func_sprite_actor_woman         sprite_actor_woman
     000765CD  _sprite_actor_woman_metasprite_0   sprite_actor_woman
     000765D9  _sprite_actor_woman_metasprite_1   sprite_actor_woman
     000765E5  _sprite_actor_woman_metasprite_2   sprite_actor_woman
     000765E9  _sprite_actor_woman_metasprites    sprite_actor_woman
     000765EF  _sprite_actor_woman_animations     sprite_actor_woman
     000765FF  _sprite_actor_woman_animations_l   sprite_actor_woman
     00076601  _sprite_actor_woman                sprite_actor_woman
     00076614  ___func_sprite_static_bathtub_ti   sprite_static_bathtub_tilese
     00076614  _sprite_static_bathtub_tileset     sprite_static_bathtub_tilese
     00076656  ___func_sprite_static_bathtub      sprite_static_bathtub
     00076656  _sprite_static_bathtub_metasprit   sprite_static_bathtub
     00076662  _sprite_static_bathtub_metasprit   sprite_static_bathtub
     00076664  _sprite_static_bathtub_animation   sprite_static_bathtub
     00076674  _sprite_static_bathtub_animation   sprite_static_bathtub
     00076676  _sprite_static_bathtub             sprite_static_bathtub
     00076689  ___func_sprite_static_bed_2_tile   sprite_static_bed_2_tileset
     00076689  _sprite_static_bed_2_tileset       sprite_static_bed_2_tileset
     000766CB  ___func_sprite_static_bed_2        sprite_static_bed_2
     000766CB  _sprite_static_bed_2_metasprite_   sprite_static_bed_2
     000766D7  _sprite_static_bed_2_metasprites   sprite_static_bed_2
ASxxxx Linker V03.00/V05.40 + sdld,  page 61.
Hexadecimal  [32-Bits]

Area                                    Addr        Size        Decimal Bytes (Attributes)
--------------------------------        ----        ----        ------- ----- ------------
_CODE_7                             00074000    0000370F =       14095. bytes (REL,CON)

      Value  Global                              Global Defined In Module
      -----  --------------------------------   ------------------------
     000766D9  _sprite_static_bed_2_animations    sprite_static_bed_2
     000766E9  _sprite_static_bed_2_animations_   sprite_static_bed_2
     000766EB  _sprite_static_bed_2               sprite_static_bed_2
     000766FE  ___func_sprite_static_bed_tilese   sprite_static_bed_tileset
     000766FE  _sprite_static_bed_tileset         sprite_static_bed_tileset
     00076740  ___func_sprite_static_bed          sprite_static_bed
     00076740  _sprite_static_bed_metasprite_0    sprite_static_bed
     0007674C  _sprite_static_bed_metasprites     sprite_static_bed
     0007674E  _sprite_static_bed_animations      sprite_static_bed
     0007675E  _sprite_static_bed_animations_lo   sprite_static_bed
     00076760  _sprite_static_bed                 sprite_static_bed
     00076773  ___func_sprite_static_door_close   sprite_static_door_close_v1_
     00076773  _sprite_static_door_close_v1_til   sprite_static_door_close_v1_
     000767B5  ___func_sprite_static_door_close   sprite_static_door_close_v1
     000767B5  _sprite_static_door_close_v1_met   sprite_static_door_close_v1
     000767C1  _sprite_static_door_close_v1_met   sprite_static_door_close_v1
     000767C3  _sprite_static_door_close_v1_ani   sprite_static_door_close_v1
     000767D3  _sprite_static_door_close_v1_ani   sprite_static_door_close_v1
     000767D5  _sprite_static_door_close_v1       sprite_static_door_close_v1
     000767E8  ___func_sprite_static_door_close   sprite_static_door_close_v2_
     000767E8  _sprite_static_door_close_v2_til   sprite_static_door_close_v2_
     0007682A  ___func_sprite_static_door_close   sprite_static_door_close_v2
     0007682A  _sprite_static_door_close_v2_met   sprite_static_door_close_v2
     00076836  _sprite_static_door_close_v2_met   sprite_static_door_close_v2
     00076838  _sprite_static_door_close_v2_ani   sprite_static_door_close_v2
     00076848  _sprite_static_door_close_v2_ani   sprite_static_door_close_v2
     0007684A  _sprite_static_door_close_v2       sprite_static_door_close_v2
     0007685D  ___func_sprite_static_door_close   sprite_static_door_close_v3_
     0007685D  _sprite_static_door_close_v3_til   sprite_static_door_close_v3_
     0007689F  ___func_sprite_static_door_close   sprite_static_door_close_v3
     0007689F  _sprite_static_door_close_v3_met   sprite_static_door_close_v3
     000768AB  _sprite_static_door_close_v3_met   sprite_static_door_close_v3
     000768AD  _sprite_static_door_close_v3_ani   sprite_static_door_close_v3
     000768BD  _sprite_static_door_close_v3_ani   sprite_static_door_close_v3
     000768BF  _sprite_static_door_close_v3       sprite_static_door_close_v3
     000768D2  ___func_sprite_static_door_close   sprite_static_door_close_v4_
     000768D2  _sprite_static_door_close_v4_til   sprite_static_door_close_v4_
     00076914  ___func_sprite_static_door_close   sprite_static_door_close_v4
     00076914  _sprite_static_door_close_v4_met   sprite_static_door_close_v4
     00076920  _sprite_static_door_close_v4_met   sprite_static_door_close_v4
     00076922  _sprite_static_door_close_v4_ani   sprite_static_door_close_v4
     00076932  _sprite_static_door_close_v4_ani   sprite_static_door_close_v4
     00076934  _sprite_static_door_close_v4       sprite_static_door_close_v4
     00076947  ___func_sprite_static_door_close   sprite_static_door_close_v5_
     00076947  _sprite_static_door_close_v5_til   sprite_static_door_close_v5_
     00076989  ___func_sprite_static_door_close   sprite_static_door_close_v5
     00076989  _sprite_static_door_close_v5_met   sprite_static_door_close_v5
     00076995  _sprite_static_door_close_v5_met   sprite_static_door_close_v5
     00076997  _sprite_static_door_close_v5_ani   sprite_static_door_close_v5
     000769A7  _sprite_static_door_close_v5_ani   sprite_static_door_close_v5
     000769A9  _sprite_static_door_close_v5       sprite_static_door_close_v5
ASxxxx Linker V03.00/V05.40 + sdld,  page 62.
Hexadecimal  [32-Bits]

Area                                    Addr        Size        Decimal Bytes (Attributes)
--------------------------------        ----        ----        ------- ----- ------------
_CODE_7                             00074000    0000370F =       14095. bytes (REL,CON)

      Value  Global                              Global Defined In Module
      -----  --------------------------------   ------------------------
     000769BC  ___func_sprite_static_door_close   sprite_static_door_close_v6_
     000769BC  _sprite_static_door_close_v6_til   sprite_static_door_close_v6_
     000769FE  ___func_sprite_static_door_close   sprite_static_door_close_v6
     000769FE  _sprite_static_door_close_v6_met   sprite_static_door_close_v6
     00076A0A  _sprite_static_door_close_v6_met   sprite_static_door_close_v6
     00076A0C  _sprite_static_door_close_v6_ani   sprite_static_door_close_v6
     00076A1C  _sprite_static_door_close_v6_ani   sprite_static_door_close_v6
     00076A1E  _sprite_static_door_close_v6       sprite_static_door_close_v6
     00076A31  ___func_sprite_static_furniture_   sprite_static_furniture_v1
     00076A31  _sprite_static_furniture_v1_meta   sprite_static_furniture_v1
     00076A3D  _sprite_static_furniture_v1_meta   sprite_static_furniture_v1
     00076A3F  _sprite_static_furniture_v1_anim   sprite_static_furniture_v1
     00076A4F  _sprite_static_furniture_v1_anim   sprite_static_furniture_v1
     00076A51  _sprite_static_furniture_v1        sprite_static_furniture_v1
     00076A64  ___func_sprite_static_furniture_   sprite_static_furniture_v2_t
     00076A64  _sprite_static_furniture_v2_tile   sprite_static_furniture_v2_t
     00076A86  ___func_sprite_static_furniture_   sprite_static_furniture_v2
     00076A86  _sprite_static_furniture_v2_meta   sprite_static_furniture_v2
     00076A92  _sprite_static_furniture_v2_meta   sprite_static_furniture_v2
     00076A94  _sprite_static_furniture_v2_anim   sprite_static_furniture_v2
     00076AA4  _sprite_static_furniture_v2_anim   sprite_static_furniture_v2
     00076AA6  _sprite_static_furniture_v2        sprite_static_furniture_v2
     00076AB9  ___func_sprite_static_gas_stove_   sprite_static_gas_stove_tile
     00076AB9  _sprite_static_gas_stove_tileset   sprite_static_gas_stove_tile
     00076ADB  ___func_sprite_static_gas_stove    sprite_static_gas_stove
     00076ADB  _sprite_static_gas_stove_metaspr   sprite_static_gas_stove
     00076AE7  _sprite_static_gas_stove_metaspr   sprite_static_gas_stove
     00076AE9  _sprite_static_gas_stove_animati   sprite_static_gas_stove
     00076AF9  _sprite_static_gas_stove_animati   sprite_static_gas_stove
     00076AFB  _sprite_static_gas_stove           sprite_static_gas_stove
     00076B0E  ___func_sprite_static_grand_pap_   sprite_static_grand_pap_tile
     00076B0E  _sprite_static_grand_pap_tileset   sprite_static_grand_pap_tile
     00076B50  ___func_sprite_static_grand_pap    sprite_static_grand_pap
     00076B50  _sprite_static_grand_pap_metaspr   sprite_static_grand_pap
     00076B5C  _sprite_static_grand_pap_metaspr   sprite_static_grand_pap
     00076B60  _sprite_static_grand_pap_metaspr   sprite_static_grand_pap
     00076B64  _sprite_static_grand_pap_animati   sprite_static_grand_pap
     00076B74  _sprite_static_grand_pap_animati   sprite_static_grand_pap
     00076B76  _sprite_static_grand_pap           sprite_static_grand_pap
     00076B89  ___func_sprite_static_mirror_til   sprite_static_mirror_tileset
     00076B89  _sprite_static_mirror_tileset      sprite_static_mirror_tileset
     00076BCB  ___func_sprite_static_mirror       sprite_static_mirror
     00076BCB  _sprite_static_mirror_metasprite   sprite_static_mirror
     00076BD7  _sprite_static_mirror_metasprite   sprite_static_mirror
     00076BD9  _sprite_static_mirror_animations   sprite_static_mirror
     00076BE9  _sprite_static_mirror_animations   sprite_static_mirror
     00076BEB  _sprite_static_mirror              sprite_static_mirror
     00076BFE  ___func_sprite_static_old_phone_   sprite_static_old_phone_tile
     00076BFE  _sprite_static_old_phone_tileset   sprite_static_old_phone_tile
     00076C40  ___func_sprite_static_old_phone    sprite_static_old_phone
     00076C40  _sprite_static_old_phone_metaspr   sprite_static_old_phone
ASxxxx Linker V03.00/V05.40 + sdld,  page 63.
Hexadecimal  [32-Bits]

Area                                    Addr        Size        Decimal Bytes (Attributes)
--------------------------------        ----        ----        ------- ----- ------------
_CODE_7                             00074000    0000370F =       14095. bytes (REL,CON)

      Value  Global                              Global Defined In Module
      -----  --------------------------------   ------------------------
     00076C4C  _sprite_static_old_phone_metaspr   sprite_static_old_phone
     00076C4E  _sprite_static_old_phone_animati   sprite_static_old_phone
     00076C5E  _sprite_static_old_phone_animati   sprite_static_old_phone
     00076C60  _sprite_static_old_phone           sprite_static_old_phone
     00076C73  ___func_sprite_static_sign_tiles   sprite_static_sign_tileset
     00076C73  _sprite_static_sign_tileset        sprite_static_sign_tileset
     00076CB5  ___func_sprite_static_sign         sprite_static_sign
     00076CB5  _sprite_static_sign_metasprite_0   sprite_static_sign
     00076CC1  _sprite_static_sign_metasprites    sprite_static_sign
     00076CC3  _sprite_static_sign_animations     sprite_static_sign
     00076CD3  _sprite_static_sign_animations_l   sprite_static_sign
     00076CD5  _sprite_static_sign                sprite_static_sign
     00076CE8  ___func_sprite_static_sink_tiles   sprite_static_sink_tileset
     00076CE8  _sprite_static_sink_tileset        sprite_static_sink_tileset
     00076D0A  ___func_sprite_static_sink         sprite_static_sink
     00076D0A  _sprite_static_sink_metasprite_0   sprite_static_sink
     00076D16  _sprite_static_sink_metasprites    sprite_static_sink
     00076D18  _sprite_static_sink_animations     sprite_static_sink
     00076D28  _sprite_static_sink_animations_l   sprite_static_sink
     00076D2A  _sprite_static_sink                sprite_static_sink
     00076D3D  ___func_sprite_static_sleep_tile   sprite_static_sleep_tileset
     00076D3D  _sprite_static_sleep_tileset       sprite_static_sleep_tileset
     00076DBF  ___func_sprite_static_sleep        sprite_static_sleep
     00076DBF  _sprite_static_sleep_metasprite_   sprite_static_sleep
     00076DC3  _sprite_static_sleep_metasprite_   sprite_static_sleep
     00076DCB  _sprite_static_sleep_metasprite_   sprite_static_sleep
     00076DD7  _sprite_static_sleep_metasprite_   sprite_static_sleep
     00076DE3  _sprite_static_sleep_metasprites   sprite_static_sleep
     00076DEB  _sprite_static_sleep_animations    sprite_static_sleep
     00076DFB  _sprite_static_sleep_animations_   sprite_static_sleep
     00076DFD  _sprite_static_sleep               sprite_static_sleep
     00076E10  ___func_sprite_static_tv_tileset   sprite_static_tv_tileset
     00076E10  _sprite_static_tv_tileset          sprite_static_tv_tileset
     00076E52  ___func_sprite_static_tv           sprite_static_tv
     00076E52  _sprite_static_tv_metasprite_0     sprite_static_tv
     00076E5E  _sprite_static_tv_metasprites      sprite_static_tv
     00076E60  _sprite_static_tv_animations       sprite_static_tv
     00076E70  _sprite_static_tv_animations_loo   sprite_static_tv
     00076E72  _sprite_static_tv                  sprite_static_tv
     00076E85  ___func_sprite_static_washbasin_   sprite_static_washbasin_tile
     00076E85  _sprite_static_washbasin_tileset   sprite_static_washbasin_tile
     00076EA7  ___func_sprite_static_washbasin    sprite_static_washbasin
     00076EA7  _sprite_static_washbasin_metaspr   sprite_static_washbasin
     00076EB3  _sprite_static_washbasin_metaspr   sprite_static_washbasin
     00076EB5  _sprite_static_washbasin_animati   sprite_static_washbasin
     00076EC5  _sprite_static_washbasin_animati   sprite_static_washbasin
     00076EC7  _sprite_static_washbasin           sprite_static_washbasin
     00076EDA  _spritesheet_none_metasprite       spritesheet_none
     00076EDE  _spritesheet_none_metasprites      spritesheet_none
     00076EE0  _spritesheet_none                  spritesheet_none
     00076EF3  ___func_tileset_default_frame      tileset_default_frame
ASxxxx Linker V03.00/V05.40 + sdld,  page 64.
Hexadecimal  [32-Bits]

Area                                    Addr        Size        Decimal Bytes (Attributes)
--------------------------------        ----        ----        ------- ----- ------------
_CODE_7                             00074000    0000370F =       14095. bytes (REL,CON)

      Value  Global                              Global Defined In Module
      -----  --------------------------------   ------------------------
     00076EF3  _tileset_default_frame             tileset_default_frame
     00076F85  _trigger_1_interact                trigger_1_interact
     00076FBB  _trigger_14_interact               trigger_14_interact
     00076FF1  _trigger_15_interact               trigger_15_interact
     0007706A  _trigger_16_interact               trigger_16_interact
     000770B2  _trigger_18_interact               trigger_18_interact
     000770E8  _trigger_19_interact               trigger_19_interact
     0007711E  _trigger_2_interact                trigger_2_interact
     00077150  _trigger_20_interact               trigger_20_interact
     00077186  _trigger_23_interact               trigger_23_interact
     000771BB  _trigger_24_interact               trigger_24_interact
     00077202  _trigger_25_interact               trigger_25_interact
     0007727B  _trigger_26_interact               trigger_26_interact
     000772F5  _trigger_27_interact               trigger_27_interact
     0007732B  _trigger_28_interact               trigger_28_interact
     000773A6  _trigger_29_interact               trigger_29_interact
     00077420  _trigger_3_interact                trigger_3_interact
     00077452  _trigger_30_interact               trigger_30_interact
     000774CE  _trigger_33_interact               trigger_33_interact
     0007751A  _trigger_35_interact               trigger_35_interact
     00077566  _trigger_4_interact                trigger_4_interact
     00077598  _trigger_5_interact                trigger_5_interact
     000775E4  _trigger_51_interact               trigger_51_interact
     00077630  _trigger_52_interact               trigger_52_interact
     0007767C  _trigger_53_interact               trigger_53_interact
     000776C8  _trigger_6_interact                trigger_6_interact
     000776FE  _logo_init                         logo
     0007770E  _logo_update                       logo
ASxxxx Linker V03.00/V05.40 + sdld,  page 65.
Hexadecimal  [32-Bits]

Area                                    Addr        Size        Decimal Bytes (Attributes)
--------------------------------        ----        ----        ------- ----- ------------
_CODE_5                             00054000    00004000 =       16384. bytes (REL,CON)

      Value  Global                              Global Defined In Module
      -----  --------------------------------   ------------------------
     00054000  _core_reset                        core
     00054075  _process_VM                        core
     000542F3  _core_run                          core
     000543C6  ___HandleCrash_banked              
     0005472E  _printer_send_receive              gbprinter
     00054764  _printer_send_byte                 gbprinter
     00054777  _printer_send_command              gbprinter
     0005479A  _printer_print_tile                gbprinter
     0005482B  _printer_wait                      gbprinter
     0005485D  _gbprinter_detect                  gbprinter
     00054877  _gbprinter_print_overlay           gbprinter
     00054A3C  _data_init                         load_save
     00054A87  _save_points                       load_save
     00054AE7  _data_slot_address                 load_save
     00054B5F  _data_save                         load_save
     00054C20  _data_load                         load_save
     00054D34  _data_clear                        load_save
     00054D61  _data_peek                         load_save
     00054E02  _atan2                             math_atan2
     00054F9B  _atan2_table                       math_atan2
     00055103  _projectiles_init                  projectiles
     00055132  _projectile_launch                 projectiles
     00055549  _trigger_reset                     trigger
     00055559  _trigger_interact                  trigger
     00055598  _trigger_activate_at               trigger
     000555E3  _trigger_at_intersection           trigger
     0005570A  _trigger_activate_at_intersectio   trigger
     0005584B  _trigger_at_tile                   trigger
     000558DC  ___func_VM_CAMERA                  vm_camera
     000558DC  _vm_camera_move_to                 vm_camera
     00055B2F  _vm_camera_set_pos                 vm_camera
     00055B76  _camera_shake_frames               vm_camera
     00055CA5  ___func_bg_scene_01_tileset        bg_scene_01_tileset
     00055CA5  _bg_scene_01_tileset               bg_scene_01_tileset
     00055F37  ___func_bg_scene_02_tileset        bg_scene_02_tileset
     00055F37  _bg_scene_02_tileset               bg_scene_02_tileset
     00056389  ___func_bg_scene_03_tileset        bg_scene_03_tileset
     00056389  _bg_scene_03_tileset               bg_scene_03_tileset
     0005674B  ___func_bg_scene_04_tilemap        bg_scene_04_tilemap
     0005674B  _bg_scene_04_tilemap               bg_scene_04_tilemap
     00056B83  ___func_bg_scene_05_tileset        bg_scene_05_tileset
     00056B83  _bg_scene_05_tileset               bg_scene_05_tileset
     00056E55  ___func_bg_scene_06_tileset        bg_scene_06_tileset
     00056E55  _bg_scene_06_tileset               bg_scene_06_tileset
     00057127  ___func_bg_scenewelcome_tileset    bg_scenewelcome_tileset
     00057127  _bg_scenewelcome_tileset           bg_scenewelcome_tileset
     00057459  ___func_scene_10_sprites           scene_10_sprites
     00057459  _scene_10_sprites                  scene_10_sprites
     00057465  ___func_scene_7_actors             scene_7_actors
     00057465  _scene_7_actors                    scene_7_actors
ASxxxx Linker V03.00/V05.40 + sdld,  page 66.
Hexadecimal  [32-Bits]

Area                                    Addr        Size        Decimal Bytes (Attributes)
--------------------------------        ----        ----        ------- ----- ------------
_CODE_5                             00054000    00004000 =       16384. bytes (REL,CON)

      Value  Global                              Global Defined In Module
      -----  --------------------------------   ------------------------
     0005773D  ___func_scene_7_collisions         scene_7_collisions
     0005773D  _scene_7_collisions                scene_7_collisions
     00057B75  ___func_sprite_actor_animated_ti   sprite_actor_animated_tilese
     00057B75  _sprite_actor_animated_tileset     sprite_actor_animated_tilese
     00057CB7  _trigger_34_interact               trigger_34_interact

ASxxxx Linker V03.00/V05.40 + sdld,  page 67.
Hexadecimal  [32-Bits]

Area                                    Addr        Size        Decimal Bytes (Attributes)
--------------------------------        ----        ----        ------- ----- ------------
_CRASH_HEADER0                      00000000    00000005 =           5. bytes (ABS,CON)

      Value  Global                              Global Defined In Module
      -----  --------------------------------   ------------------------
ASxxxx Linker V03.00/V05.40 + sdld,  page 68.
Hexadecimal  [32-Bits]

Area                                    Addr        Size        Decimal Bytes (Attributes)
--------------------------------        ----        ----        ------- ----- ------------
_CRASH_HEADER1                      00000000    00000004 =           4. bytes (ABS,CON)

      Value  Global                              Global Defined In Module
      -----  --------------------------------   ------------------------
ASxxxx Linker V03.00/V05.40 + sdld,  page 69.
Hexadecimal  [32-Bits]

Area                                    Addr        Size        Decimal Bytes (Attributes)
--------------------------------        ----        ----        ------- ----- ------------
_CRASH_SCRATCH2                     00000000    000001CB =         459. bytes (ABS,CON)

      Value  Global                              Global Defined In Module
      -----  --------------------------------   ------------------------
ASxxxx Linker V03.00/V05.40 + sdld,  page 70.
Hexadecimal  [32-Bits]

Area                                    Addr        Size        Decimal Bytes (Attributes)
--------------------------------        ----        ----        ------- ----- ------------
_CODE_4                             00044000    00003FFF =       16383. bytes (REL,CON)

      Value  Global                              Global Defined In Module
      -----  --------------------------------   ------------------------
     00044000  _load_init                         data_manager
     00044013  _spritesheet_none_far              data_manager
     00044016  _load_bkg_tileset                  data_manager
     000440F3  _load_background                   data_manager
     00044191  _load_sprite                       data_manager
     000441E4  _load_bounds                       data_manager
     00044201  _do_load_palette                   data_manager
     00044286  _load_scene                        data_manager
     000448E6  _load_player                       data_manager
     0004492F  _load_emote                        data_manager
     00044948  _DMGFadeToWhiteStep                fade_manager
     00044969  _DMGFadeToBlackStep                fade_manager
     0004498C  _ApplyPaletteChangeDMG             fade_manager
     000449E2  _fade_speeds                       fade_manager
     000449E9  _fade_init                         fade_manager
     000449FF  _fade_in                           fade_manager
     00044A21  _fade_out                          fade_manager
     00044A45  _fade_update                       fade_manager
     00044A8C  _fade_applypalettechange           fade_manager
     00044A92  _fade_setspeed                     fade_manager
     00044AA2  _fade_in_modal                     fade_manager
     00044ABC  _fade_out_modal                    fade_manager
     00044AD6  ___func_VM_GAMEBOY                 vm_gameboy
     00044AD6  _vm_set_sprites_visible            vm_gameboy
     00044AED  _vm_input_wait                     vm_gameboy
     00044B16  _vm_context_prepare                vm_gameboy
     00044B41  _vm_input_attach                   vm_gameboy
     00044B57  _vm_input_detach                   vm_gameboy
     00044B6B  _vm_input_get                      vm_gameboy
     00044B9F  _vm_fade                           vm_gameboy
     00044BCF  _vm_timer_prepare                  vm_gameboy
     00044BFA  _vm_timer_set                      vm_gameboy
     00044C15  _vm_timer_stop                     vm_gameboy
     00044C29  _vm_timer_reset                    vm_gameboy
     00044C40  _vm_get_tile_xy                    vm_gameboy
     00044CE0  _vm_replace_tile                   vm_gameboy
     00044D71  _vm_poll                           vm_gameboy
     00044E43  _vm_set_sprite_mode                vm_gameboy
     00044E57  _vm_replace_tile_xy                vm_gameboy
     00044FBF  _vm_rumble                         vm_gameboy
     00044FDF  _vm_load_tileset                   vm_gameboy
     0004504C  ___func_VM_UI                      vm_ui
     0004504C  _vm_display_text                   vm_ui
     0004507A  _vm_switch_text_layer              vm_ui
     00045094  _vm_overlay_setpos                 vm_ui
     000450AE  _vm_overlay_wait                   vm_ui
     0004513E  _vm_overlay_move_to                vm_ui
     00045182  _vm_overlay_set_scroll             vm_ui
     000451BB  _vm_overlay_clear                  vm_ui
     0004525B  _vm_overlay_show                   vm_ui
ASxxxx Linker V03.00/V05.40 + sdld,  page 71.
Hexadecimal  [32-Bits]

Area                                    Addr        Size        Decimal Bytes (Attributes)
--------------------------------        ----        ----        ------- ----- ------------
_CODE_4                             00044000    00003FFF =       16383. bytes (REL,CON)

      Value  Global                              Global Defined In Module
      -----  --------------------------------   ------------------------
     000452A9  _vm_choice                         vm_ui
     000453C4  _vm_set_font                       vm_ui
     000453F3  _vm_overlay_scroll                 vm_ui
     0004542A  _vm_overlay_set_submap             vm_ui
     00045463  _vm_overlay_set_submap_ex          vm_ui
     000454DF  _vm_overlay_set_map                vm_ui
     000455C9  _vm_set_text_sound                 vm_ui
     000455E2  ___func_bg_logo_gameoff2024_tile   bg_logo_gameoff2024_tileset
     000455E2  _bg_logo_gameoff2024_tileset       bg_logo_gameoff2024_tileset
     00045FF4  ___func_bg_scene_04_tileset        bg_scene_04_tileset
     00045FF4  _bg_scene_04_tileset               bg_scene_04_tileset
     00046646  ___func_bg_scene_07_tileset        bg_scene_07_tileset
     00046646  _bg_scene_07_tileset               bg_scene_07_tileset
     00046BA8  ___func_bg_scene_08_tileset        bg_scene_08_tileset
     00046BA8  _bg_scene_08_tileset               bg_scene_08_tileset
     0004727A  ___func_bg_scene_title_tileset     bg_scene_title_tileset
     0004727A  _bg_scene_title_tileset            bg_scene_title_tileset
     0004791C  ___func_sprite_static_furniture_   sprite_static_furniture_v1_t
     0004791C  _sprite_static_furniture_v1_tile   sprite_static_furniture_v1_t
     0004793E  _topdown_init                      topdown
     000479D5  _topdown_update                    topdown

ASxxxx Linker V03.00/V05.40 + sdld,  page 72.
Hexadecimal  [32-Bits]

Area                                    Addr        Size        Decimal Bytes (Attributes)
--------------------------------        ----        ----        ------- ----- ------------
_CODE_6                             00064000    00003FFF =       16383. bytes (REL,CON)

      Value  Global                              Global Defined In Module
      -----  --------------------------------   ------------------------
     00064068  _save_sram_banks                   
     000640F0  _erase_flash                       
     00064106  _music_init_driver                 music_manager
     00064162  _music_init_events                 music_manager
     0006419E  _music_events_poll                 music_manager
     000641C6  _music_pause                       music_manager
     000641E8  _set_sgb_border                    sgb_border
     000643D2  ___func_VM_MATH                    vm_math
     000643D2  _vm_sin_scale                      vm_math
     0006446E  _vm_cos_scale                      vm_math
     0006450C  ___func_VM_MUSIC                   vm_music
     0006450C  _vm_music_play                     vm_music
     00064559  _vm_music_stop                     vm_music
     0006457B  _vm_music_mute                     vm_music
     000645B9  _vm_music_routine                  vm_music
     000645E0  _vm_music_setpos                   vm_music
     000645E6  _vm_sound_mastervol                vm_music
     000645EC  _vm_sfx_play                       vm_music
     0006465F  ___func_VM_PALETTE                 vm_palette
     0006465F  _vm_load_palette                   vm_palette
     000647B3  ___func_VM_PROJECTILE              vm_projectiles
     000647B3  _vm_projectile_launch              vm_projectiles
     000647F4  _vm_projectile_load_type           vm_projectiles
     00064886  ___func_VM_RTC                     vm_rtc
     00064886  _vm_rtc_latch                      vm_rtc
     0006488E  _vm_rtc_get                        vm_rtc
     000648F5  _vm_rtc_set                        vm_rtc
     00064953  _vm_rtc_start                      vm_rtc
     00064976  _itoa_fmt                          vm_ui_a
     000649AA  .utoa_fmt                          vm_ui_a
     00064A54  ___func_bg_logo_gameoff2024_tile   bg_logo_gameoff2024_tilemap
     00064A54  _bg_logo_gameoff2024_tilemap       bg_logo_gameoff2024_tilemap
     00064BBC  ___func_bg_scene_01_tilemap        bg_scene_01_tilemap
     00064BBC  _bg_scene_01_tilemap               bg_scene_01_tilemap
     00064D24  ___func_bg_scene_02_tilemap        bg_scene_02_tilemap
     00064D24  _bg_scene_02_tilemap               bg_scene_02_tilemap
     00064E8C  ___func_bg_scene_03_tilemap        bg_scene_03_tilemap
     00064E8C  _bg_scene_03_tilemap               bg_scene_03_tilemap
     00064FF4  ___func_bg_scene_05_tilemap        bg_scene_05_tilemap
     00064FF4  _bg_scene_05_tilemap               bg_scene_05_tilemap
     0006515C  ___func_bg_scene_06_tilemap        bg_scene_06_tilemap
     0006515C  _bg_scene_06_tilemap               bg_scene_06_tilemap
     000652C4  ___func_bg_scene_07_tilemap        bg_scene_07_tilemap
     000652C4  _bg_scene_07_tilemap               bg_scene_07_tilemap
     0006542C  ___func_bg_scene_08_tilemap        bg_scene_08_tilemap
     0006542C  _bg_scene_08_tilemap               bg_scene_08_tilemap
     00065594  ___func_bg_scene_09_tilemap        bg_scene_09_tilemap
     00065594  _bg_scene_09_tilemap               bg_scene_09_tilemap
     000656FC  ___func_bg_scene_09_tileset        bg_scene_09_tileset
     000656FC  _bg_scene_09_tileset               bg_scene_09_tileset
ASxxxx Linker V03.00/V05.40 + sdld,  page 73.
Hexadecimal  [32-Bits]

Area                                    Addr        Size        Decimal Bytes (Attributes)
--------------------------------        ----        ----        ------- ----- ------------
_CODE_6                             00064000    00003FFF =       16383. bytes (REL,CON)

      Value  Global                              Global Defined In Module
      -----  --------------------------------   ------------------------
     0006590E  ___func_bg_scene_title_tilemap     bg_scene_title_tilemap
     0006590E  _bg_scene_title_tilemap            bg_scene_title_tilemap
     00065A76  ___func_bg_scenewelcome_tilemap    bg_scenewelcome_tilemap
     00065A76  _bg_scenewelcome_tilemap           bg_scenewelcome_tilemap
     00065BDE  ___func_scene_0_actors             scene_0_actors
     00065BDE  _scene_0_actors                    scene_0_actors
     00065DE6  ___func_scene_0_collisions         scene_0_collisions
     00065DE6  _scene_0_collisions                scene_0_collisions
     00065F4E  ___func_scene_1_collisions         scene_1_collisions
     00065F4E  _scene_1_collisions                scene_1_collisions
     000660B6  ___func_scene_10_actors            scene_10_actors
     000660B6  _scene_10_actors                   scene_10_actors
     000661EE  ___func_scene_10_collisions        scene_10_collisions
     000661EE  _scene_10_collisions               scene_10_collisions
     00066356  ___func_scene_11_actors            scene_11_actors
     00066356  _scene_11_actors                   scene_11_actors
     000664C2  ___func_scene_11_collisions        scene_11_collisions
     000664C2  _scene_11_collisions               scene_11_collisions
     0006662A  ___func_scene_12_actors            scene_12_actors
     0006662A  _scene_12_actors                   scene_12_actors
     00066762  ___func_scene_12_collisions        scene_12_collisions
     00066762  _scene_12_collisions               scene_12_collisions
     000668CA  ___func_scene_13_actors            scene_13_actors
     000668CA  _scene_13_actors                   scene_13_actors
     0006699A  ___func_scene_13_collisions        scene_13_collisions
     0006699A  _scene_13_collisions               scene_13_collisions
     00066B02  ___func_scene_14_actors            scene_14_actors
     00066B02  _scene_14_actors                   scene_14_actors
     00066C06  ___func_scene_14_collisions        scene_14_collisions
     00066C06  _scene_14_collisions               scene_14_collisions
     00066D6E  ___func_scene_15_actors            scene_15_actors
     00066D6E  _scene_15_actors                   scene_15_actors
     00066E72  ___func_scene_15_collisions        scene_15_collisions
     00066E72  _scene_15_collisions               scene_15_collisions
     00066FDA  ___func_scene_16_collisions        scene_16_collisions
     00066FDA  _scene_16_collisions               scene_16_collisions
     00067142  ___func_scene_17_collisions        scene_17_collisions
     00067142  _scene_17_collisions               scene_17_collisions
     000672AA  ___func_scene_2_collisions         scene_2_collisions
     000672AA  _scene_2_collisions                scene_2_collisions
     00067412  ___func_scene_3_collisions         scene_3_collisions
     00067412  _scene_3_collisions                scene_3_collisions
     0006757A  ___func_scene_4_collisions         scene_4_collisions
     0006757A  _scene_4_collisions                scene_4_collisions
     000676E2  ___func_scene_5_collisions         scene_5_collisions
     000676E2  _scene_5_collisions                scene_5_collisions
     0006784A  ___func_scene_6_actors             scene_6_actors
     0006784A  _scene_6_actors                    scene_6_actors
     0006791A  ___func_scene_6_collisions         scene_6_collisions
     0006791A  _scene_6_collisions                scene_6_collisions
     00067A82  _scene_7_init                      scene_7_init
ASxxxx Linker V03.00/V05.40 + sdld,  page 74.
Hexadecimal  [32-Bits]

Area                                    Addr        Size        Decimal Bytes (Attributes)
--------------------------------        ----        ----        ------- ----- ------------
_CODE_6                             00064000    00003FFF =       16383. bytes (REL,CON)

      Value  Global                              Global Defined In Module
      -----  --------------------------------   ------------------------
     00067BB9  ___func_scene_9_collisions         scene_9_collisions
     00067BB9  _scene_9_collisions                scene_9_collisions
     00067D21  ___func_sprite_actor_animated_ca   sprite_actor_animated_car_ti
     00067D21  _sprite_actor_animated_car_tiles   sprite_actor_animated_car_ti
     00067E23  ___func_sprite_actor_animated_ca   sprite_actor_animated_car
     00067E23  _sprite_actor_animated_car_metas   sprite_actor_animated_car
     00067E2F  _sprite_actor_animated_car_metas   sprite_actor_animated_car
     00067E3B  _sprite_actor_animated_car_metas   sprite_actor_animated_car
     00067E47  _sprite_actor_animated_car_metas   sprite_actor_animated_car
     00067E53  _sprite_actor_animated_car_metas   sprite_actor_animated_car
     00067E5F  _sprite_actor_animated_car_metas   sprite_actor_animated_car
     00067E6B  _sprite_actor_animated_car_metas   sprite_actor_animated_car
     00067E81  _sprite_actor_animated_car_anima   sprite_actor_animated_car
     00067E91  _sprite_actor_animated_car_anima   sprite_actor_animated_car
     00067E93  _sprite_actor_animated_car         sprite_actor_animated_car
     00067EA6  _trigger_21_interact               trigger_21_interact
ASxxxx Linker V03.00/V05.40 + sdld,  page 75.
Hexadecimal  [32-Bits]

Area                                    Addr        Size        Decimal Bytes (Attributes)
--------------------------------        ----        ----        ------- ----- ------------
_HEADER_SIO0                        00000000    00000004 =           4. bytes (ABS,CON)

      Value  Global                              Global Defined In Module
      -----  --------------------------------   ------------------------
ASxxxx Linker V03.00/V05.40 + sdld,  page 76.
Hexadecimal  [32-Bits]

Area                                    Addr        Size        Decimal Bytes (Attributes)
--------------------------------        ----        ----        ------- ----- ------------
_HEADER_TIMER0                      00000000    00000004 =           4. bytes (ABS,CON)

      Value  Global                              Global Defined In Module
      -----  --------------------------------   ------------------------
ASxxxx Linker V03.00/V05.40 + sdld,  page 77.
Hexadecimal  [32-Bits]

Area                                    Addr        Size        Decimal Bytes (Attributes)
--------------------------------        ----        ----        ------- ----- ------------
_CODE_3                             00034000    00004000 =       16384. bytes (REL,CON)

      Value  Global                              Global Defined In Module
      -----  --------------------------------   ------------------------
     00034000  _scroll_init                       scroll
     0003402A  _scroll_reset                      scroll
     0003404A  _scroll_update                     scroll
     00034181  _scroll_viewport                   scroll
     0003461A  _scroll_repaint                    scroll
     0003462A  _scroll_render_rows                scroll
     000346C0  _scroll_queue_row                  scroll
     000346E2  _scroll_queue_col                  scroll
     0003472D  ___func_VM_MAIN                    vm
     0003472D  _vm_call                           vm
     0003476F  _vm_ret                            vm
     000347CF  _vm_call_far                       vm
     0003484E  _vm_ret_far                        vm
     000348C6  _vm_push                           vm
     000348F1  _vm_pop                            vm
     0003492C  _vm_loop                           vm
     000349B7  _vm_jump                           vm
     000349C3  _wait_frames                       vm
     00034A30  _vm_invoke                         vm
     00034B5D  _vm_join                           vm
     00034BBF  _vm_terminate                      vm
     00034BEC  _vm_if                             vm
     00034D31  _vm_if_const                       vm
     00034E46  _vm_push_value                     vm
     00034E98  _vm_push_value_ind                 vm
     00034F0D  _vm_push_reference                 vm
     00034F64  _vm_reserve                        vm
     00034F92  _vm_set                            vm
     00034FF3  _vm_set_const                      vm
     0003501F  _vm_get_tlocal                     vm
     000350AC  _vm_test_terminate                 vm
     000350B7  _vm_idle                           vm
     000350C3  _vm_init_rng                       vm
     000350EF  _vm_rand                           vm
     00035131  _vm_lock                           vm
     00035140  _vm_unlock                         vm
     00035153  _vm_raise                          vm
     00035195  _vm_set_indirect                   vm
     00035210  _vm_get_indirect                   vm
     0003528B  _vm_poll_loaded                    vm
     000352BB  _vm_memset                         vm
     000352F5  _vm_memcpy                         vm
     00035372  _script_runner_init                vm
     00035429  _script_execute                    vm
     0003558F  _script_terminate                  vm
     000355F4  _script_detach_hthread             vm
     00035630  ___func_font_gbs_mono              font_gbs_mono
     000363E0  _font_gbs_mono                     font_gbs_mono
     000363E8  ___func_frame_image                frame_image
     000363E8  _frame_image                       frame_image
ASxxxx Linker V03.00/V05.40 + sdld,  page 78.
Hexadecimal  [32-Bits]

Area                                    Addr        Size        Decimal Bytes (Attributes)
--------------------------------        ----        ----        ------- ----- ------------
_CODE_3                             00034000    00004000 =       16384. bytes (REL,CON)

      Value  Global                              Global Defined In Module
      -----  --------------------------------   ------------------------
     00037197  _song_bs_free_level_start_Data     song_bs_free_level_start_Dat
     000371AC  ___func_sound_gbfx_sav_00          sound_gbfx_sav
     000371AC  ___func_sound_gbfx_sav_01          sound_gbfx_sav
     000371AC  ___func_sound_gbfx_sav_02          sound_gbfx_sav
     000371AC  ___func_sound_gbfx_sav_03          sound_gbfx_sav
     000371AC  ___func_sound_gbfx_sav_04          sound_gbfx_sav
     000371AC  ___func_sound_gbfx_sav_05          sound_gbfx_sav
     000371AC  ___func_sound_gbfx_sav_06          sound_gbfx_sav
     000371AC  ___func_sound_gbfx_sav_07          sound_gbfx_sav
     000371AC  ___func_sound_gbfx_sav_08          sound_gbfx_sav
     000371AC  ___func_sound_gbfx_sav_09          sound_gbfx_sav
     000371AC  ___func_sound_gbfx_sav_10          sound_gbfx_sav
     000371AC  ___func_sound_gbfx_sav_11          sound_gbfx_sav
     000371AC  ___func_sound_gbfx_sav_12          sound_gbfx_sav
     000371AC  ___func_sound_gbfx_sav_13          sound_gbfx_sav
     000371AC  ___func_sound_gbfx_sav_14          sound_gbfx_sav
     000371AC  ___func_sound_gbfx_sav_15          sound_gbfx_sav
     000371AC  ___func_sound_gbfx_sav_16          sound_gbfx_sav
     000371AC  ___func_sound_gbfx_sav_17          sound_gbfx_sav
     000371AC  ___func_sound_gbfx_sav_18          sound_gbfx_sav
     000371AC  ___func_sound_gbfx_sav_19          sound_gbfx_sav
     000371AC  ___func_sound_gbfx_sav_20          sound_gbfx_sav
     000371AC  ___func_sound_gbfx_sav_21          sound_gbfx_sav
     000371AC  ___func_sound_gbfx_sav_22          sound_gbfx_sav
     000371AC  ___func_sound_gbfx_sav_23          sound_gbfx_sav
     000371AC  ___func_sound_gbfx_sav_24          sound_gbfx_sav
     000371AC  ___func_sound_gbfx_sav_25          sound_gbfx_sav
     000371AC  ___func_sound_gbfx_sav_26          sound_gbfx_sav
     000371AC  ___func_sound_gbfx_sav_27          sound_gbfx_sav
     000371AC  ___func_sound_gbfx_sav_28          sound_gbfx_sav
     000371AC  ___func_sound_gbfx_sav_29          sound_gbfx_sav
     000371AC  ___func_sound_gbfx_sav_30          sound_gbfx_sav
     000371AC  ___func_sound_gbfx_sav_31          sound_gbfx_sav
     000371AC  ___func_sound_gbfx_sav_32          sound_gbfx_sav
     000371AC  ___func_sound_gbfx_sav_33          sound_gbfx_sav
     000371AC  ___func_sound_gbfx_sav_34          sound_gbfx_sav
     000371AC  ___func_sound_gbfx_sav_35          sound_gbfx_sav
     000371AC  ___func_sound_gbfx_sav_36          sound_gbfx_sav
     000371AC  ___func_sound_gbfx_sav_37          sound_gbfx_sav
     000371AC  ___func_sound_gbfx_sav_38          sound_gbfx_sav
     000371AC  ___func_sound_gbfx_sav_39          sound_gbfx_sav
     000371AC  ___func_sound_gbfx_sav_40          sound_gbfx_sav
     000371AC  ___func_sound_gbfx_sav_41          sound_gbfx_sav
     000371AC  ___func_sound_gbfx_sav_42          sound_gbfx_sav
     000371AC  ___func_sound_gbfx_sav_43          sound_gbfx_sav
     000371AC  ___func_sound_gbfx_sav_44          sound_gbfx_sav
     000371AC  ___func_sound_gbfx_sav_45          sound_gbfx_sav
     000371AC  ___func_sound_gbfx_sav_46          sound_gbfx_sav
     000371AC  ___func_sound_gbfx_sav_47          sound_gbfx_sav
     000371AC  ___func_sound_gbfx_sav_48          sound_gbfx_sav
     000371AC  _sound_gbfx_sav_00                 sound_gbfx_sav
ASxxxx Linker V03.00/V05.40 + sdld,  page 79.
Hexadecimal  [32-Bits]

Area                                    Addr        Size        Decimal Bytes (Attributes)
--------------------------------        ----        ----        ------- ----- ------------
_CODE_3                             00034000    00004000 =       16384. bytes (REL,CON)

      Value  Global                              Global Defined In Module
      -----  --------------------------------   ------------------------
     000371B9  _sound_gbfx_sav_01                 sound_gbfx_sav
     000371C6  _sound_gbfx_sav_02                 sound_gbfx_sav
     000371F5  _sound_gbfx_sav_03                 sound_gbfx_sav
     00037218  _sound_gbfx_sav_04                 sound_gbfx_sav
     0003724B  _sound_gbfx_sav_05                 sound_gbfx_sav
     000372AC  _sound_gbfx_sav_06                 sound_gbfx_sav
     0003730E  _sound_gbfx_sav_07                 sound_gbfx_sav
     0003735B  _sound_gbfx_sav_08                 sound_gbfx_sav
     000373A4  _sound_gbfx_sav_09                 sound_gbfx_sav
     00037406  _sound_gbfx_sav_10                 sound_gbfx_sav
     00037435  _sound_gbfx_sav_11                 sound_gbfx_sav
     0003745F  _sound_gbfx_sav_12                 sound_gbfx_sav
     000374B7  _sound_gbfx_sav_13                 sound_gbfx_sav
     0003751A  _sound_gbfx_sav_14                 sound_gbfx_sav
     00037572  _sound_gbfx_sav_15                 sound_gbfx_sav
     000375A2  _sound_gbfx_sav_16                 sound_gbfx_sav
     000375BB  _sound_gbfx_sav_17                 sound_gbfx_sav
     000375DF  _sound_gbfx_sav_18                 sound_gbfx_sav
     0003760F  _sound_gbfx_sav_19                 sound_gbfx_sav
     0003763C  _sound_gbfx_sav_20                 sound_gbfx_sav
     00037668  _sound_gbfx_sav_21                 sound_gbfx_sav
     0003769B  _sound_gbfx_sav_22                 sound_gbfx_sav
     0003771F  _sound_gbfx_sav_23                 sound_gbfx_sav
     0003776A  _sound_gbfx_sav_24                 sound_gbfx_sav
     0003777C  _sound_gbfx_sav_25                 sound_gbfx_sav
     00037798  _sound_gbfx_sav_26                 sound_gbfx_sav
     000377B7  _sound_gbfx_sav_27                 sound_gbfx_sav
     000377ED  _sound_gbfx_sav_28                 sound_gbfx_sav
     00037816  _sound_gbfx_sav_29                 sound_gbfx_sav
     00037830  _sound_gbfx_sav_30                 sound_gbfx_sav
     0003786D  _sound_gbfx_sav_31                 sound_gbfx_sav
     000378BF  _sound_gbfx_sav_32                 sound_gbfx_sav
     0003791F  _sound_gbfx_sav_33                 sound_gbfx_sav
     00037977  _sound_gbfx_sav_34                 sound_gbfx_sav
     000379E6  _sound_gbfx_sav_35                 sound_gbfx_sav
     00037A68  _sound_gbfx_sav_36                 sound_gbfx_sav
     00037AFF  _sound_gbfx_sav_37                 sound_gbfx_sav
     00037B8E  _sound_gbfx_sav_38                 sound_gbfx_sav
     00037BD7  _sound_gbfx_sav_39                 sound_gbfx_sav
     00037C22  _sound_gbfx_sav_40                 sound_gbfx_sav
     00037C5C  _sound_gbfx_sav_41                 sound_gbfx_sav
     00037CE8  _sound_gbfx_sav_42                 sound_gbfx_sav
     00037D5A  _sound_gbfx_sav_43                 sound_gbfx_sav
     00037DCC  _sound_gbfx_sav_44                 sound_gbfx_sav
     00037E65  _sound_gbfx_sav_45                 sound_gbfx_sav
     00037F11  _sound_gbfx_sav_46                 sound_gbfx_sav
     00037F5E  _sound_gbfx_sav_47                 sound_gbfx_sav
     00037FC0  _sound_gbfx_sav_48                 sound_gbfx_sav

ASxxxx Linker V03.00/V05.40 + sdld,  page 80.
Hexadecimal  [32-Bits]

Area                                    Addr        Size        Decimal Bytes (Attributes)
--------------------------------        ----        ----        ------- ----- ------------
_CODE_1                             00014000    00003FFF =       16383. bytes (REL,CON)

      Value  Global                              Global Defined In Module
      -----  --------------------------------   ------------------------
     00014000  _ui_swap_tiles                     
     0001404A  _ui_print_make_mask_lr             
     00014066  _ui_print_make_mask_rl             
     00014082  _ui_init                           ui
     00014149  _ui_load_tiles                     ui
     000141A0  _ui_draw_frame                     ui
     00014210  _ui_print_reset                    ui
     00014244  _ui_set_start_tile                 ui
     00014270  _ui_print_render                   ui
     0001444D  _ui_draw_text_buffer_char          ui
     0001488A  _ui_run_menu                       ui
     00014A04  _ui_run_modal                      ui
     00014ABE  ___func_VM_SGB                     vm_sgb
     00014ABE  ___func_VM_SIO                     vm_sio
     00014ABE  _vm_sio_set_mode                   vm_sio
     00014AD0  _vm_sio_exchange                   vm_sio
     00017FE1  _song_blue_ocean_remix_Data        song_blue_ocean_remix_Data
     00017FF6  ___func_scene_14_sprites           scene_14_sprites
     00017FF6  _scene_14_sprites                  scene_14_sprites

ASxxxx Linker V03.00/V05.40 + sdld,  page 81.
Hexadecimal  [32-Bits]

Area                                    Addr        Size        Decimal Bytes (Attributes)
--------------------------------        ----        ----        ------- ----- ------------
_HEADER_LCD0                        00000000    00000003 =           3. bytes (ABS,CON)

      Value  Global                              Global Defined In Module
      -----  --------------------------------   ------------------------
ASxxxx Linker V03.00/V05.40 + sdld,  page 82.

Files Linked                              [ module(s) ]

/var/folders/06/dcbj2js154ngmm3yh5sfn9zm0000gq/T/_gbstools/gbdk/lib/gb/crt0.o
                                          [ Runtime ]
/var/folders/06/dcbj2js154ngmm3yh5sfn9zm0000gq/T/_gbsbuild/obj/absolute.rel
                                          [ absolute ]
/var/folders/06/dcbj2js154ngmm3yh5sfn9zm0000gq/T/_gbsbuild/obj/actor.rel
                                          [ actor ]
/var/folders/06/dcbj2js154ngmm3yh5sfn9zm0000gq/T/_gbsbuild/obj/bankdata.rel
                                          [ bankdata ]
/var/folders/06/dcbj2js154ngmm3yh5sfn9zm0000gq/T/_gbsbuild/obj/bootstrap.rel
                                          [  ]
/var/folders/06/dcbj2js154ngmm3yh5sfn9zm0000gq/T/_gbsbuild/obj/camera.rel
                                          [ camera ]
/var/folders/06/dcbj2js154ngmm3yh5sfn9zm0000gq/T/_gbsbuild/obj/core.rel
                                          [ core ]
/var/folders/06/dcbj2js154ngmm3yh5sfn9zm0000gq/T/_gbsbuild/obj/crash_handler.rel
                                          [  ]
/var/folders/06/dcbj2js154ngmm3yh5sfn9zm0000gq/T/_gbsbuild/obj/data_manager.rel
                                          [ data_manager ]
/var/folders/06/dcbj2js154ngmm3yh5sfn9zm0000gq/T/_gbsbuild/obj/events.rel
                                          [ events ]
/var/folders/06/dcbj2js154ngmm3yh5sfn9zm0000gq/T/_gbsbuild/obj/fade_manager.rel
                                          [ fade_manager ]
/var/folders/06/dcbj2js154ngmm3yh5sfn9zm0000gq/T/_gbsbuild/obj/flasher_s.rel
                                          [  ]
/var/folders/06/dcbj2js154ngmm3yh5sfn9zm0000gq/T/_gbsbuild/obj/flasher.rel
                                          [ flasher ]
/var/folders/06/dcbj2js154ngmm3yh5sfn9zm0000gq/T/_gbsbuild/obj/game_time.rel
                                          [ game_time ]
/var/folders/06/dcbj2js154ngmm3yh5sfn9zm0000gq/T/_gbsbuild/obj/gbprinter.rel
                                          [ gbprinter ]
/var/folders/06/dcbj2js154ngmm3yh5sfn9zm0000gq/T/_gbsbuild/obj/input.rel
                                          [ input ]
/var/folders/06/dcbj2js154ngmm3yh5sfn9zm0000gq/T/_gbsbuild/obj/interrupt_sio.rel
                                          [  ]
/var/folders/06/dcbj2js154ngmm3yh5sfn9zm0000gq/T/_gbsbuild/obj/interrupt_timer.rel
                                          [  ]
/var/folders/06/dcbj2js154ngmm3yh5sfn9zm0000gq/T/_gbsbuild/obj/interrupts.rel
                                          [ interrupts ]
/var/folders/06/dcbj2js154ngmm3yh5sfn9zm0000gq/T/_gbsbuild/obj/load_save.rel
                                          [ load_save ]
/var/folders/06/dcbj2js154ngmm3yh5sfn9zm0000gq/T/_gbsbuild/obj/math_atan2.rel
                                          [ math_atan2 ]
/var/folders/06/dcbj2js154ngmm3yh5sfn9zm0000gq/T/_gbsbuild/obj/math.rel
                                          [ math ]
/var/folders/06/dcbj2js154ngmm3yh5sfn9zm0000gq/T/_gbsbuild/obj/music_manager.rel
                                          [ music_manager ]
/var/folders/06/dcbj2js154ngmm3yh5sfn9zm0000gq/T/_gbsbuild/obj/palette.rel
                                          [ palette ]
/var/folders/06/dcbj2js154ngmm3yh5sfn9zm0000gq/T/_gbsbuild/obj/parallax.rel
                                          [ parallax ]
/var/folders/06/dcbj2js154ngmm3yh5sfn9zm0000gq/T/_gbsbuild/obj/projectiles.rel
                                          [ projectiles ]
/var/folders/06/dcbj2js154ngmm3yh5sfn9zm0000gq/T/_gbsbuild/obj/scroll_a.rel
                                          [  ]
/var/folders/06/dcbj2js154ngmm3yh5sfn9zm0000gq/T/_gbsbuild/obj/scroll.rel
                                          [ scroll ]
/var/folders/06/dcbj2js154ngmm3yh5sfn9zm0000gq/T/_gbsbuild/obj/set_tile_submap.rel
                                          [  ]
/var/folders/06/dcbj2js154ngmm3yh5sfn9zm0000gq/T/_gbsbuild/obj/sfx_player.rel
                                          [ sfx_player ]
/var/folders/06/dcbj2js154ngmm3yh5sfn9zm0000gq/T/_gbsbuild/obj/sgb_border.rel
                                          [ sgb_border ]
/var/folders/06/dcbj2js154ngmm3yh5sfn9zm0000gq/T/_gbsbuild/obj/sio.rel
                                          [ sio ]
/var/folders/06/dcbj2js154ngmm3yh5sfn9zm0000gq/T/_gbsbuild/obj/states_caller.rel
                                          [  ]
/var/folders/06/dcbj2js154ngmm3yh5sfn9zm0000gq/T/_gbsbuild/obj/system.rel
                                          [ system ]
/var/folders/06/dcbj2js154ngmm3yh5sfn9zm0000gq/T/_gbsbuild/obj/trigger.rel
                                          [ trigger ]
/var/folders/06/dcbj2js154ngmm3yh5sfn9zm0000gq/T/_gbsbuild/obj/ui_a.rel
                                          [  ]
/var/folders/06/dcbj2js154ngmm3yh5sfn9zm0000gq/T/_gbsbuild/obj/ui.rel
                                          [ ui ]
/var/folders/06/dcbj2js154ngmm3yh5sfn9zm0000gq/T/_gbsbuild/obj/vm_actor.rel
                                          [ vm_actor ]
/var/folders/06/dcbj2js154ngmm3yh5sfn9zm0000gq/T/_gbsbuild/obj/vm_camera.rel
                                          [ vm_camera ]
/var/folders/06/dcbj2js154ngmm3yh5sfn9zm0000gq/T/_gbsbuild/obj/vm_gameboy.rel
                                          [ vm_gameboy ]
/var/folders/06/dcbj2js154ngmm3yh5sfn9zm0000gq/T/_gbsbuild/obj/vm_gbprinter.rel
                                          [ vm_gbprinter ]
/var/folders/06/dcbj2js154ngmm3yh5sfn9zm0000gq/T/_gbsbuild/obj/vm_instructions.rel
                                          [ vm_instructions ]
/var/folders/06/dcbj2js154ngmm3yh5sfn9zm0000gq/T/_gbsbuild/obj/vm_load_save.rel
                                          [ vm_load_save ]
/var/folders/06/dcbj2js154ngmm3yh5sfn9zm0000gq/T/_gbsbuild/obj/vm_math.rel
                                          [ vm_math ]
/var/folders/06/dcbj2js154ngmm3yh5sfn9zm0000gq/T/_gbsbuild/obj/vm_music.rel
                                          [ vm_music ]
/var/folders/06/dcbj2js154ngmm3yh5sfn9zm0000gq/T/_gbsbuild/obj/vm_palette.rel
                                          [ vm_palette ]
/var/folders/06/dcbj2js154ngmm3yh5sfn9zm0000gq/T/_gbsbuild/obj/vm_projectiles.rel
                                          [ vm_projectiles ]
/var/folders/06/dcbj2js154ngmm3yh5sfn9zm0000gq/T/_gbsbuild/obj/vm_rtc.rel
                                          [ vm_rtc ]
/var/folders/06/dcbj2js154ngmm3yh5sfn9zm0000gq/T/_gbsbuild/obj/vm_scene.rel
                                          [ vm_scene ]
/var/folders/06/dcbj2js154ngmm3yh5sfn9zm0000gq/T/_gbsbuild/obj/vm_sgb.rel
                                          [ vm_sgb ]
/var/folders/06/dcbj2js154ngmm3yh5sfn9zm0000gq/T/_gbsbuild/obj/vm_sio.rel
                                          [ vm_sio ]
/var/folders/06/dcbj2js154ngmm3yh5sfn9zm0000gq/T/_gbsbuild/obj/vm_ui_a.rel
                                          [ vm_ui_a ]
/var/folders/06/dcbj2js154ngmm3yh5sfn9zm0000gq/T/_gbsbuild/obj/vm_ui.rel
                                          [ vm_ui ]
/var/folders/06/dcbj2js154ngmm3yh5sfn9zm0000gq/T/_gbsbuild/obj/vm.rel
                                          [ vm ]
/var/folders/06/dcbj2js154ngmm3yh5sfn9zm0000gq/T/_gbsbuild/obj/actor_0_interact.rel
                                          [ actor_0_interact ]
/var/folders/06/dcbj2js154ngmm3yh5sfn9zm0000gq/T/_gbsbuild/obj/actor_1_interact.rel
                                          [ actor_1_interact ]
/var/folders/06/dcbj2js154ngmm3yh5sfn9zm0000gq/T/_gbsbuild/obj/actor_2_interact.rel
                                          [ actor_2_interact ]
/var/folders/06/dcbj2js154ngmm3yh5sfn9zm0000gq/T/_gbsbuild/obj/actor_21_interact.rel
                                          [ actor_21_interact ]
/var/folders/06/dcbj2js154ngmm3yh5sfn9zm0000gq/T/_gbsbuild/obj/actor_22_interact.rel
                                          [ actor_22_interact ]
/var/folders/06/dcbj2js154ngmm3yh5sfn9zm0000gq/T/_gbsbuild/obj/actor_23_interact.rel
                                          [ actor_23_interact ]
/var/folders/06/dcbj2js154ngmm3yh5sfn9zm0000gq/T/_gbsbuild/obj/actor_25_interact.rel
                                          [ actor_25_interact ]
/var/folders/06/dcbj2js154ngmm3yh5sfn9zm0000gq/T/_gbsbuild/obj/actor_26_interact.rel
                                          [ actor_26_interact ]
/var/folders/06/dcbj2js154ngmm3yh5sfn9zm0000gq/T/_gbsbuild/obj/actor_27_interact.rel
                                          [ actor_27_interact ]
/var/folders/06/dcbj2js154ngmm3yh5sfn9zm0000gq/T/_gbsbuild/obj/actor_28_interact.rel
                                          [ actor_28_interact ]
/var/folders/06/dcbj2js154ngmm3yh5sfn9zm0000gq/T/_gbsbuild/obj/actor_29_interact.rel
                                          [ actor_29_interact ]
/var/folders/06/dcbj2js154ngmm3yh5sfn9zm0000gq/T/_gbsbuild/obj/actor_3_interact.rel
                                          [ actor_3_interact ]
/var/folders/06/dcbj2js154ngmm3yh5sfn9zm0000gq/T/_gbsbuild/obj/actor_30_interact.rel
                                          [ actor_30_interact ]
/var/folders/06/dcbj2js154ngmm3yh5sfn9zm0000gq/T/_gbsbuild/obj/actor_32_interact.rel
                                          [ actor_32_interact ]
/var/folders/06/dcbj2js154ngmm3yh5sfn9zm0000gq/T/_gbsbuild/obj/actor_33_interact.rel
                                          [ actor_33_interact ]
/var/folders/06/dcbj2js154ngmm3yh5sfn9zm0000gq/T/_gbsbuild/obj/actor_34_interact.rel
                                          [ actor_34_interact ]
/var/folders/06/dcbj2js154ngmm3yh5sfn9zm0000gq/T/_gbsbuild/obj/actor_35_interact.rel
                                          [ actor_35_interact ]
/var/folders/06/dcbj2js154ngmm3yh5sfn9zm0000gq/T/_gbsbuild/obj/actor_38_interact.rel
                                          [ actor_38_interact ]
/var/folders/06/dcbj2js154ngmm3yh5sfn9zm0000gq/T/_gbsbuild/obj/actor_39_interact.rel
                                          [ actor_39_interact ]
/var/folders/06/dcbj2js154ngmm3yh5sfn9zm0000gq/T/_gbsbuild/obj/actor_4_interact.rel
                                          [ actor_4_interact ]
/var/folders/06/dcbj2js154ngmm3yh5sfn9zm0000gq/T/_gbsbuild/obj/actor_40_interact.rel
                                          [ actor_40_interact ]
/var/folders/06/dcbj2js154ngmm3yh5sfn9zm0000gq/T/_gbsbuild/obj/actor_41_interact.rel
                                          [ actor_41_interact ]
/var/folders/06/dcbj2js154ngmm3yh5sfn9zm0000gq/T/_gbsbuild/obj/actor_42_interact.rel
                                          [ actor_42_interact ]
/var/folders/06/dcbj2js154ngmm3yh5sfn9zm0000gq/T/_gbsbuild/obj/actor_44_interact.rel
                                          [ actor_44_interact ]
/var/folders/06/dcbj2js154ngmm3yh5sfn9zm0000gq/T/_gbsbuild/obj/actor_45_interact.rel
                                          [ actor_45_interact ]
/var/folders/06/dcbj2js154ngmm3yh5sfn9zm0000gq/T/_gbsbuild/obj/actor_47_interact.rel
                                          [ actor_47_interact ]
/var/folders/06/dcbj2js154ngmm3yh5sfn9zm0000gq/T/_gbsbuild/obj/actor_48_interact.rel
                                          [ actor_48_interact ]
/var/folders/06/dcbj2js154ngmm3yh5sfn9zm0000gq/T/_gbsbuild/obj/actor_49_interact.rel
                                          [ actor_49_interact ]
/var/folders/06/dcbj2js154ngmm3yh5sfn9zm0000gq/T/_gbsbuild/obj/actor_50_interact.rel
                                          [ actor_50_interact ]
/var/folders/06/dcbj2js154ngmm3yh5sfn9zm0000gq/T/_gbsbuild/obj/actor_51_interact.rel
                                          [ actor_51_interact ]
/var/folders/06/dcbj2js154ngmm3yh5sfn9zm0000gq/T/_gbsbuild/obj/actor_52_interact.rel
                                          [ actor_52_interact ]
/var/folders/06/dcbj2js154ngmm3yh5sfn9zm0000gq/T/_gbsbuild/obj/actor_53_interact.rel
                                          [ actor_53_interact ]
/var/folders/06/dcbj2js154ngmm3yh5sfn9zm0000gq/T/_gbsbuild/obj/actor_56_interact.rel
                                          [ actor_56_interact ]
/var/folders/06/dcbj2js154ngmm3yh5sfn9zm0000gq/T/_gbsbuild/obj/actor_57_interact.rel
                                          [ actor_57_interact ]
/var/folders/06/dcbj2js154ngmm3yh5sfn9zm0000gq/T/_gbsbuild/obj/actor_59_interact.rel
                                          [ actor_59_interact ]
/var/folders/06/dcbj2js154ngmm3yh5sfn9zm0000gq/T/_gbsbuild/obj/actor_6_interact.rel
                                          [ actor_6_interact ]
/var/folders/06/dcbj2js154ngmm3yh5sfn9zm0000gq/T/_gbsbuild/obj/actor_61_interact.rel
                                          [ actor_61_interact ]
/var/folders/06/dcbj2js154ngmm3yh5sfn9zm0000gq/T/_gbsbuild/obj/actor_66_interact.rel
                                          [ actor_66_interact ]
/var/folders/06/dcbj2js154ngmm3yh5sfn9zm0000gq/T/_gbsbuild/obj/actor_67_interact.rel
                                          [ actor_67_interact ]
/var/folders/06/dcbj2js154ngmm3yh5sfn9zm0000gq/T/_gbsbuild/obj/actor_68_interact.rel
                                          [ actor_68_interact ]
/var/folders/06/dcbj2js154ngmm3yh5sfn9zm0000gq/T/_gbsbuild/obj/actor_69_interact.rel
                                          [ actor_69_interact ]
/var/folders/06/dcbj2js154ngmm3yh5sfn9zm0000gq/T/_gbsbuild/obj/actor_7_interact.rel
                                          [ actor_7_interact ]
/var/folders/06/dcbj2js154ngmm3yh5sfn9zm0000gq/T/_gbsbuild/obj/actor_8_interact.rel
                                          [ actor_8_interact ]
/var/folders/06/dcbj2js154ngmm3yh5sfn9zm0000gq/T/_gbsbuild/obj/actor_9_interact.rel
                                          [ actor_9_interact ]
/var/folders/06/dcbj2js154ngmm3yh5sfn9zm0000gq/T/_gbsbuild/obj/bg_logo_gameoff2024_tilemap.rel
                                          [ bg_logo_gameoff2024_tilemap ]
/var/folders/06/dcbj2js154ngmm3yh5sfn9zm0000gq/T/_gbsbuild/obj/bg_logo_gameoff2024_tileset.rel
                                          [ bg_logo_gameoff2024_tileset ]
/var/folders/06/dcbj2js154ngmm3yh5sfn9zm0000gq/T/_gbsbuild/obj/bg_logo_gameoff2024.rel
                                          [ bg_logo_gameoff2024 ]
/var/folders/06/dcbj2js154ngmm3yh5sfn9zm0000gq/T/_gbsbuild/obj/bg_scene_01_tilemap.rel
                                          [ bg_scene_01_tilemap ]
/var/folders/06/dcbj2js154ngmm3yh5sfn9zm0000gq/T/_gbsbuild/obj/bg_scene_01_tileset.rel
                                          [ bg_scene_01_tileset ]
/var/folders/06/dcbj2js154ngmm3yh5sfn9zm0000gq/T/_gbsbuild/obj/bg_scene_01.rel
                                          [ bg_scene_01 ]
/var/folders/06/dcbj2js154ngmm3yh5sfn9zm0000gq/T/_gbsbuild/obj/bg_scene_02_tilemap.rel
                                          [ bg_scene_02_tilemap ]
/var/folders/06/dcbj2js154ngmm3yh5sfn9zm0000gq/T/_gbsbuild/obj/bg_scene_02_tileset.rel
                                          [ bg_scene_02_tileset ]
/var/folders/06/dcbj2js154ngmm3yh5sfn9zm0000gq/T/_gbsbuild/obj/bg_scene_02.rel
                                          [ bg_scene_02 ]
/var/folders/06/dcbj2js154ngmm3yh5sfn9zm0000gq/T/_gbsbuild/obj/bg_scene_03_tilemap.rel
                                          [ bg_scene_03_tilemap ]
/var/folders/06/dcbj2js154ngmm3yh5sfn9zm0000gq/T/_gbsbuild/obj/bg_scene_03_tileset.rel
                                          [ bg_scene_03_tileset ]
/var/folders/06/dcbj2js154ngmm3yh5sfn9zm0000gq/T/_gbsbuild/obj/bg_scene_03.rel
                                          [ bg_scene_03 ]
/var/folders/06/dcbj2js154ngmm3yh5sfn9zm0000gq/T/_gbsbuild/obj/bg_scene_04_tilemap.rel
                                          [ bg_scene_04_tilemap ]
/var/folders/06/dcbj2js154ngmm3yh5sfn9zm0000gq/T/_gbsbuild/obj/bg_scene_04_tileset.rel
                                          [ bg_scene_04_tileset ]
/var/folders/06/dcbj2js154ngmm3yh5sfn9zm0000gq/T/_gbsbuild/obj/bg_scene_04.rel
                                          [ bg_scene_04 ]
/var/folders/06/dcbj2js154ngmm3yh5sfn9zm0000gq/T/_gbsbuild/obj/bg_scene_05_tilemap.rel
                                          [ bg_scene_05_tilemap ]
/var/folders/06/dcbj2js154ngmm3yh5sfn9zm0000gq/T/_gbsbuild/obj/bg_scene_05_tileset.rel
                                          [ bg_scene_05_tileset ]
/var/folders/06/dcbj2js154ngmm3yh5sfn9zm0000gq/T/_gbsbuild/obj/bg_scene_05.rel
                                          [ bg_scene_05 ]
/var/folders/06/dcbj2js154ngmm3yh5sfn9zm0000gq/T/_gbsbuild/obj/bg_scene_06_tilemap.rel
                                          [ bg_scene_06_tilemap ]
/var/folders/06/dcbj2js154ngmm3yh5sfn9zm0000gq/T/_gbsbuild/obj/bg_scene_06_tileset.rel
                                          [ bg_scene_06_tileset ]
/var/folders/06/dcbj2js154ngmm3yh5sfn9zm0000gq/T/_gbsbuild/obj/bg_scene_06.rel
                                          [ bg_scene_06 ]
/var/folders/06/dcbj2js154ngmm3yh5sfn9zm0000gq/T/_gbsbuild/obj/bg_scene_07_tilemap.rel
                                          [ bg_scene_07_tilemap ]
/var/folders/06/dcbj2js154ngmm3yh5sfn9zm0000gq/T/_gbsbuild/obj/bg_scene_07_tileset.rel
                                          [ bg_scene_07_tileset ]
/var/folders/06/dcbj2js154ngmm3yh5sfn9zm0000gq/T/_gbsbuild/obj/bg_scene_07.rel
                                          [ bg_scene_07 ]
/var/folders/06/dcbj2js154ngmm3yh5sfn9zm0000gq/T/_gbsbuild/obj/bg_scene_08_tilemap.rel
                                          [ bg_scene_08_tilemap ]
/var/folders/06/dcbj2js154ngmm3yh5sfn9zm0000gq/T/_gbsbuild/obj/bg_scene_08_tileset.rel
                                          [ bg_scene_08_tileset ]
/var/folders/06/dcbj2js154ngmm3yh5sfn9zm0000gq/T/_gbsbuild/obj/bg_scene_08.rel
                                          [ bg_scene_08 ]
/var/folders/06/dcbj2js154ngmm3yh5sfn9zm0000gq/T/_gbsbuild/obj/bg_scene_09_tilemap.rel
                                          [ bg_scene_09_tilemap ]
/var/folders/06/dcbj2js154ngmm3yh5sfn9zm0000gq/T/_gbsbuild/obj/bg_scene_09_tileset.rel
                                          [ bg_scene_09_tileset ]
/var/folders/06/dcbj2js154ngmm3yh5sfn9zm0000gq/T/_gbsbuild/obj/bg_scene_09.rel
                                          [ bg_scene_09 ]
/var/folders/06/dcbj2js154ngmm3yh5sfn9zm0000gq/T/_gbsbuild/obj/bg_scene_title_tilemap.rel
                                          [ bg_scene_title_tilemap ]
/var/folders/06/dcbj2js154ngmm3yh5sfn9zm0000gq/T/_gbsbuild/obj/bg_scene_title_tileset.rel
                                          [ bg_scene_title_tileset ]
/var/folders/06/dcbj2js154ngmm3yh5sfn9zm0000gq/T/_gbsbuild/obj/bg_scene_title.rel
                                          [ bg_scene_title ]
/var/folders/06/dcbj2js154ngmm3yh5sfn9zm0000gq/T/_gbsbuild/obj/bg_scenewelcome_tilemap.rel
                                          [ bg_scenewelcome_tilemap ]
/var/folders/06/dcbj2js154ngmm3yh5sfn9zm0000gq/T/_gbsbuild/obj/bg_scenewelcome_tileset.rel
                                          [ bg_scenewelcome_tileset ]
/var/folders/06/dcbj2js154ngmm3yh5sfn9zm0000gq/T/_gbsbuild/obj/bg_scenewelcome.rel
                                          [ bg_scenewelcome ]
/var/folders/06/dcbj2js154ngmm3yh5sfn9zm0000gq/T/_gbsbuild/obj/cursor_image.rel
                                          [ cursor_image ]
/var/folders/06/dcbj2js154ngmm3yh5sfn9zm0000gq/T/_gbsbuild/obj/font_gbs_mono.rel
                                          [ font_gbs_mono ]
/var/folders/06/dcbj2js154ngmm3yh5sfn9zm0000gq/T/_gbsbuild/obj/frame_image.rel
                                          [ frame_image ]
/var/folders/06/dcbj2js154ngmm3yh5sfn9zm0000gq/T/_gbsbuild/obj/game_signature.rel
                                          [ game_signature ]
/var/folders/06/dcbj2js154ngmm3yh5sfn9zm0000gq/T/_gbsbuild/obj/song_blue_ocean_remix_Data.rel
                                          [ song_blue_ocean_remix_Data ]
/var/folders/06/dcbj2js154ngmm3yh5sfn9zm0000gq/T/_gbsbuild/obj/song_bs_free_level_start_Data.rel
                                          [ song_bs_free_level_start_Data ]
/var/folders/06/dcbj2js154ngmm3yh5sfn9zm0000gq/T/_gbsbuild/obj/palette_0.rel
                                          [ palette_0 ]
/var/folders/06/dcbj2js154ngmm3yh5sfn9zm0000gq/T/_gbsbuild/obj/palette_1.rel
                                          [ palette_1 ]
/var/folders/06/dcbj2js154ngmm3yh5sfn9zm0000gq/T/_gbsbuild/obj/scene_0_actors.rel
                                          [ scene_0_actors ]
/var/folders/06/dcbj2js154ngmm3yh5sfn9zm0000gq/T/_gbsbuild/obj/scene_0_collisions.rel
                                          [ scene_0_collisions ]
/var/folders/06/dcbj2js154ngmm3yh5sfn9zm0000gq/T/_gbsbuild/obj/scene_0_init.rel
                                          [ scene_0_init ]
/var/folders/06/dcbj2js154ngmm3yh5sfn9zm0000gq/T/_gbsbuild/obj/scene_0_sprites.rel
                                          [ scene_0_sprites ]
/var/folders/06/dcbj2js154ngmm3yh5sfn9zm0000gq/T/_gbsbuild/obj/scene_0_triggers.rel
                                          [ scene_0_triggers ]
/var/folders/06/dcbj2js154ngmm3yh5sfn9zm0000gq/T/_gbsbuild/obj/scene_0.rel
                                          [ scene_0 ]
/var/folders/06/dcbj2js154ngmm3yh5sfn9zm0000gq/T/_gbsbuild/obj/scene_1_collisions.rel
                                          [ scene_1_collisions ]
/var/folders/06/dcbj2js154ngmm3yh5sfn9zm0000gq/T/_gbsbuild/obj/scene_1_init.rel
                                          [ scene_1_init ]
/var/folders/06/dcbj2js154ngmm3yh5sfn9zm0000gq/T/_gbsbuild/obj/scene_1.rel
                                          [ scene_1 ]
/var/folders/06/dcbj2js154ngmm3yh5sfn9zm0000gq/T/_gbsbuild/obj/scene_10_actors.rel
                                          [ scene_10_actors ]
/var/folders/06/dcbj2js154ngmm3yh5sfn9zm0000gq/T/_gbsbuild/obj/scene_10_collisions.rel
                                          [ scene_10_collisions ]
/var/folders/06/dcbj2js154ngmm3yh5sfn9zm0000gq/T/_gbsbuild/obj/scene_10_init.rel
                                          [ scene_10_init ]
/var/folders/06/dcbj2js154ngmm3yh5sfn9zm0000gq/T/_gbsbuild/obj/scene_10_sprites.rel
                                          [ scene_10_sprites ]
/var/folders/06/dcbj2js154ngmm3yh5sfn9zm0000gq/T/_gbsbuild/obj/scene_10_triggers.rel
                                          [ scene_10_triggers ]
/var/folders/06/dcbj2js154ngmm3yh5sfn9zm0000gq/T/_gbsbuild/obj/scene_10.rel
                                          [ scene_10 ]
/var/folders/06/dcbj2js154ngmm3yh5sfn9zm0000gq/T/_gbsbuild/obj/scene_11_actors.rel
                                          [ scene_11_actors ]
/var/folders/06/dcbj2js154ngmm3yh5sfn9zm0000gq/T/_gbsbuild/obj/scene_11_collisions.rel
                                          [ scene_11_collisions ]
/var/folders/06/dcbj2js154ngmm3yh5sfn9zm0000gq/T/_gbsbuild/obj/scene_11_init.rel
                                          [ scene_11_init ]
/var/folders/06/dcbj2js154ngmm3yh5sfn9zm0000gq/T/_gbsbuild/obj/scene_11_sprites.rel
                                          [ scene_11_sprites ]
/var/folders/06/dcbj2js154ngmm3yh5sfn9zm0000gq/T/_gbsbuild/obj/scene_11_triggers.rel
                                          [ scene_11_triggers ]
/var/folders/06/dcbj2js154ngmm3yh5sfn9zm0000gq/T/_gbsbuild/obj/scene_11.rel
                                          [ scene_11 ]
/var/folders/06/dcbj2js154ngmm3yh5sfn9zm0000gq/T/_gbsbuild/obj/scene_12_actors.rel
                                          [ scene_12_actors ]
/var/folders/06/dcbj2js154ngmm3yh5sfn9zm0000gq/T/_gbsbuild/obj/scene_12_collisions.rel
                                          [ scene_12_collisions ]
/var/folders/06/dcbj2js154ngmm3yh5sfn9zm0000gq/T/_gbsbuild/obj/scene_12_init.rel
                                          [ scene_12_init ]
/var/folders/06/dcbj2js154ngmm3yh5sfn9zm0000gq/T/_gbsbuild/obj/scene_12_sprites.rel
                                          [ scene_12_sprites ]
/var/folders/06/dcbj2js154ngmm3yh5sfn9zm0000gq/T/_gbsbuild/obj/scene_12_triggers.rel
                                          [ scene_12_triggers ]
/var/folders/06/dcbj2js154ngmm3yh5sfn9zm0000gq/T/_gbsbuild/obj/scene_12.rel
                                          [ scene_12 ]
/var/folders/06/dcbj2js154ngmm3yh5sfn9zm0000gq/T/_gbsbuild/obj/scene_13_actors.rel
                                          [ scene_13_actors ]
/var/folders/06/dcbj2js154ngmm3yh5sfn9zm0000gq/T/_gbsbuild/obj/scene_13_collisions.rel
                                          [ scene_13_collisions ]
/var/folders/06/dcbj2js154ngmm3yh5sfn9zm0000gq/T/_gbsbuild/obj/scene_13_init.rel
                                          [ scene_13_init ]
/var/folders/06/dcbj2js154ngmm3yh5sfn9zm0000gq/T/_gbsbuild/obj/scene_13_sprites.rel
                                          [ scene_13_sprites ]
/var/folders/06/dcbj2js154ngmm3yh5sfn9zm0000gq/T/_gbsbuild/obj/scene_13_triggers.rel
                                          [ scene_13_triggers ]
/var/folders/06/dcbj2js154ngmm3yh5sfn9zm0000gq/T/_gbsbuild/obj/scene_13.rel
                                          [ scene_13 ]
/var/folders/06/dcbj2js154ngmm3yh5sfn9zm0000gq/T/_gbsbuild/obj/scene_14_actors.rel
                                          [ scene_14_actors ]
/var/folders/06/dcbj2js154ngmm3yh5sfn9zm0000gq/T/_gbsbuild/obj/scene_14_collisions.rel
                                          [ scene_14_collisions ]
/var/folders/06/dcbj2js154ngmm3yh5sfn9zm0000gq/T/_gbsbuild/obj/scene_14_init.rel
                                          [ scene_14_init ]
/var/folders/06/dcbj2js154ngmm3yh5sfn9zm0000gq/T/_gbsbuild/obj/scene_14_sprites.rel
                                          [ scene_14_sprites ]
/var/folders/06/dcbj2js154ngmm3yh5sfn9zm0000gq/T/_gbsbuild/obj/scene_14_triggers.rel
                                          [ scene_14_triggers ]
/var/folders/06/dcbj2js154ngmm3yh5sfn9zm0000gq/T/_gbsbuild/obj/scene_14.rel
                                          [ scene_14 ]
/var/folders/06/dcbj2js154ngmm3yh5sfn9zm0000gq/T/_gbsbuild/obj/scene_15_actors.rel
                                          [ scene_15_actors ]
/var/folders/06/dcbj2js154ngmm3yh5sfn9zm0000gq/T/_gbsbuild/obj/scene_15_collisions.rel
                                          [ scene_15_collisions ]
/var/folders/06/dcbj2js154ngmm3yh5sfn9zm0000gq/T/_gbsbuild/obj/scene_15_init.rel
                                          [ scene_15_init ]
/var/folders/06/dcbj2js154ngmm3yh5sfn9zm0000gq/T/_gbsbuild/obj/scene_15_sprites.rel
                                          [ scene_15_sprites ]
/var/folders/06/dcbj2js154ngmm3yh5sfn9zm0000gq/T/_gbsbuild/obj/scene_15_triggers.rel
                                          [ scene_15_triggers ]
/var/folders/06/dcbj2js154ngmm3yh5sfn9zm0000gq/T/_gbsbuild/obj/scene_15.rel
                                          [ scene_15 ]
/var/folders/06/dcbj2js154ngmm3yh5sfn9zm0000gq/T/_gbsbuild/obj/scene_16_collisions.rel
                                          [ scene_16_collisions ]
/var/folders/06/dcbj2js154ngmm3yh5sfn9zm0000gq/T/_gbsbuild/obj/scene_16_init.rel
                                          [ scene_16_init ]
/var/folders/06/dcbj2js154ngmm3yh5sfn9zm0000gq/T/_gbsbuild/obj/scene_16.rel
                                          [ scene_16 ]
/var/folders/06/dcbj2js154ngmm3yh5sfn9zm0000gq/T/_gbsbuild/obj/scene_17_actors.rel
                                          [ scene_17_actors ]
/var/folders/06/dcbj2js154ngmm3yh5sfn9zm0000gq/T/_gbsbuild/obj/scene_17_collisions.rel
                                          [ scene_17_collisions ]
/var/folders/06/dcbj2js154ngmm3yh5sfn9zm0000gq/T/_gbsbuild/obj/scene_17_init.rel
                                          [ scene_17_init ]
/var/folders/06/dcbj2js154ngmm3yh5sfn9zm0000gq/T/_gbsbuild/obj/scene_17_sprites.rel
                                          [ scene_17_sprites ]
/var/folders/06/dcbj2js154ngmm3yh5sfn9zm0000gq/T/_gbsbuild/obj/scene_17.rel
                                          [ scene_17 ]
/var/folders/06/dcbj2js154ngmm3yh5sfn9zm0000gq/T/_gbsbuild/obj/scene_2_collisions.rel
                                          [ scene_2_collisions ]
/var/folders/06/dcbj2js154ngmm3yh5sfn9zm0000gq/T/_gbsbuild/obj/scene_2_init.rel
                                          [ scene_2_init ]
/var/folders/06/dcbj2js154ngmm3yh5sfn9zm0000gq/T/_gbsbuild/obj/scene_2.rel
                                          [ scene_2 ]
/var/folders/06/dcbj2js154ngmm3yh5sfn9zm0000gq/T/_gbsbuild/obj/scene_3_actors.rel
                                          [ scene_3_actors ]
/var/folders/06/dcbj2js154ngmm3yh5sfn9zm0000gq/T/_gbsbuild/obj/scene_3_collisions.rel
                                          [ scene_3_collisions ]
/var/folders/06/dcbj2js154ngmm3yh5sfn9zm0000gq/T/_gbsbuild/obj/scene_3_init.rel
                                          [ scene_3_init ]
/var/folders/06/dcbj2js154ngmm3yh5sfn9zm0000gq/T/_gbsbuild/obj/scene_3_sprites.rel
                                          [ scene_3_sprites ]
/var/folders/06/dcbj2js154ngmm3yh5sfn9zm0000gq/T/_gbsbuild/obj/scene_3_triggers.rel
                                          [ scene_3_triggers ]
/var/folders/06/dcbj2js154ngmm3yh5sfn9zm0000gq/T/_gbsbuild/obj/scene_3.rel
                                          [ scene_3 ]
/var/folders/06/dcbj2js154ngmm3yh5sfn9zm0000gq/T/_gbsbuild/obj/scene_4_collisions.rel
                                          [ scene_4_collisions ]
/var/folders/06/dcbj2js154ngmm3yh5sfn9zm0000gq/T/_gbsbuild/obj/scene_4_init.rel
                                          [ scene_4_init ]
/var/folders/06/dcbj2js154ngmm3yh5sfn9zm0000gq/T/_gbsbuild/obj/scene_4_triggers.rel
                                          [ scene_4_triggers ]
/var/folders/06/dcbj2js154ngmm3yh5sfn9zm0000gq/T/_gbsbuild/obj/scene_4.rel
                                          [ scene_4 ]
/var/folders/06/dcbj2js154ngmm3yh5sfn9zm0000gq/T/_gbsbuild/obj/scene_5_collisions.rel
                                          [ scene_5_collisions ]
/var/folders/06/dcbj2js154ngmm3yh5sfn9zm0000gq/T/_gbsbuild/obj/scene_5_init.rel
                                          [ scene_5_init ]
/var/folders/06/dcbj2js154ngmm3yh5sfn9zm0000gq/T/_gbsbuild/obj/scene_5.rel
                                          [ scene_5 ]
/var/folders/06/dcbj2js154ngmm3yh5sfn9zm0000gq/T/_gbsbuild/obj/scene_6_actors.rel
                                          [ scene_6_actors ]
/var/folders/06/dcbj2js154ngmm3yh5sfn9zm0000gq/T/_gbsbuild/obj/scene_6_collisions.rel
                                          [ scene_6_collisions ]
/var/folders/06/dcbj2js154ngmm3yh5sfn9zm0000gq/T/_gbsbuild/obj/scene_6_init.rel
                                          [ scene_6_init ]
/var/folders/06/dcbj2js154ngmm3yh5sfn9zm0000gq/T/_gbsbuild/obj/scene_6_sprites.rel
                                          [ scene_6_sprites ]
/var/folders/06/dcbj2js154ngmm3yh5sfn9zm0000gq/T/_gbsbuild/obj/scene_6_triggers.rel
                                          [ scene_6_triggers ]
/var/folders/06/dcbj2js154ngmm3yh5sfn9zm0000gq/T/_gbsbuild/obj/scene_6.rel
                                          [ scene_6 ]
/var/folders/06/dcbj2js154ngmm3yh5sfn9zm0000gq/T/_gbsbuild/obj/scene_7_actors.rel
                                          [ scene_7_actors ]
/var/folders/06/dcbj2js154ngmm3yh5sfn9zm0000gq/T/_gbsbuild/obj/scene_7_collisions.rel
                                          [ scene_7_collisions ]
/var/folders/06/dcbj2js154ngmm3yh5sfn9zm0000gq/T/_gbsbuild/obj/scene_7_init.rel
                                          [ scene_7_init ]
/var/folders/06/dcbj2js154ngmm3yh5sfn9zm0000gq/T/_gbsbuild/obj/scene_7_sprites.rel
                                          [ scene_7_sprites ]
/var/folders/06/dcbj2js154ngmm3yh5sfn9zm0000gq/T/_gbsbuild/obj/scene_7_triggers.rel
                                          [ scene_7_triggers ]
/var/folders/06/dcbj2js154ngmm3yh5sfn9zm0000gq/T/_gbsbuild/obj/scene_7.rel
                                          [ scene_7 ]
/var/folders/06/dcbj2js154ngmm3yh5sfn9zm0000gq/T/_gbsbuild/obj/scene_9_collisions.rel
                                          [ scene_9_collisions ]
/var/folders/06/dcbj2js154ngmm3yh5sfn9zm0000gq/T/_gbsbuild/obj/scene_9_init.rel
                                          [ scene_9_init ]
/var/folders/06/dcbj2js154ngmm3yh5sfn9zm0000gq/T/_gbsbuild/obj/scene_9.rel
                                          [ scene_9 ]
/var/folders/06/dcbj2js154ngmm3yh5sfn9zm0000gq/T/_gbsbuild/obj/script_engine_init.rel
                                          [  ]
/var/folders/06/dcbj2js154ngmm3yh5sfn9zm0000gq/T/_gbsbuild/obj/sound_gbfx_sav.rel
                                          [ sound_gbfx_sav ]
/var/folders/06/dcbj2js154ngmm3yh5sfn9zm0000gq/T/_gbsbuild/obj/sound_gbfx2_sav.rel
                                          [ sound_gbfx2_sav ]
/var/folders/06/dcbj2js154ngmm3yh5sfn9zm0000gq/T/_gbsbuild/obj/sound_legacy_0.rel
                                          [ sound_legacy_0 ]
/var/folders/06/dcbj2js154ngmm3yh5sfn9zm0000gq/T/_gbsbuild/obj/sprite_actor_animated_bubbl_tileset.rel
                                          [ sprite_actor_animated_bubbl_tile ]
/var/folders/06/dcbj2js154ngmm3yh5sfn9zm0000gq/T/_gbsbuild/obj/sprite_actor_animated_bubbl.rel
                                          [ sprite_actor_animated_bubbl ]
/var/folders/06/dcbj2js154ngmm3yh5sfn9zm0000gq/T/_gbsbuild/obj/sprite_actor_animated_car_tileset.rel
                                          [ sprite_actor_animated_car_tilese ]
/var/folders/06/dcbj2js154ngmm3yh5sfn9zm0000gq/T/_gbsbuild/obj/sprite_actor_animated_car.rel
                                          [ sprite_actor_animated_car ]
/var/folders/06/dcbj2js154ngmm3yh5sfn9zm0000gq/T/_gbsbuild/obj/sprite_actor_animated_gir_v_tileset.rel
                                          [ sprite_actor_animated_gir_v_tile ]
/var/folders/06/dcbj2js154ngmm3yh5sfn9zm0000gq/T/_gbsbuild/obj/sprite_actor_animated_gir_v.rel
                                          [ sprite_actor_animated_gir_v ]
/var/folders/06/dcbj2js154ngmm3yh5sfn9zm0000gq/T/_gbsbuild/obj/sprite_actor_animated_tileset.rel
                                          [ sprite_actor_animated_tileset ]
/var/folders/06/dcbj2js154ngmm3yh5sfn9zm0000gq/T/_gbsbuild/obj/sprite_actor_animated.rel
                                          [ sprite_actor_animated ]
/var/folders/06/dcbj2js154ngmm3yh5sfn9zm0000gq/T/_gbsbuild/obj/sprite_actor_boy_tileset.rel
                                          [ sprite_actor_boy_tileset ]
/var/folders/06/dcbj2js154ngmm3yh5sfn9zm0000gq/T/_gbsbuild/obj/sprite_actor_boy.rel
                                          [ sprite_actor_boy ]
/var/folders/06/dcbj2js154ngmm3yh5sfn9zm0000gq/T/_gbsbuild/obj/sprite_actor_cat_tileset.rel
                                          [ sprite_actor_cat_tileset ]
/var/folders/06/dcbj2js154ngmm3yh5sfn9zm0000gq/T/_gbsbuild/obj/sprite_actor_cat.rel
                                          [ sprite_actor_cat ]
/var/folders/06/dcbj2js154ngmm3yh5sfn9zm0000gq/T/_gbsbuild/obj/sprite_actor_girl_tileset.rel
                                          [ sprite_actor_girl_tileset ]
/var/folders/06/dcbj2js154ngmm3yh5sfn9zm0000gq/T/_gbsbuild/obj/sprite_actor_girl.rel
                                          [ sprite_actor_girl ]
/var/folders/06/dcbj2js154ngmm3yh5sfn9zm0000gq/T/_gbsbuild/obj/sprite_actor_grass_2_tileset.rel
                                          [ sprite_actor_grass_2_tileset ]
/var/folders/06/dcbj2js154ngmm3yh5sfn9zm0000gq/T/_gbsbuild/obj/sprite_actor_grass_2.rel
                                          [ sprite_actor_grass_2 ]
/var/folders/06/dcbj2js154ngmm3yh5sfn9zm0000gq/T/_gbsbuild/obj/sprite_actor_grass_tileset.rel
                                          [ sprite_actor_grass_tileset ]
/var/folders/06/dcbj2js154ngmm3yh5sfn9zm0000gq/T/_gbsbuild/obj/sprite_actor_grass.rel
                                          [ sprite_actor_grass ]
/var/folders/06/dcbj2js154ngmm3yh5sfn9zm0000gq/T/_gbsbuild/obj/sprite_actor_handicap_man_tileset.rel
                                          [ sprite_actor_handicap_man_tilese ]
/var/folders/06/dcbj2js154ngmm3yh5sfn9zm0000gq/T/_gbsbuild/obj/sprite_actor_handicap_man.rel
                                          [ sprite_actor_handicap_man ]
/var/folders/06/dcbj2js154ngmm3yh5sfn9zm0000gq/T/_gbsbuild/obj/sprite_actor_light_tileset.rel
                                          [ sprite_actor_light_tileset ]
/var/folders/06/dcbj2js154ngmm3yh5sfn9zm0000gq/T/_gbsbuild/obj/sprite_actor_light.rel
                                          [ sprite_actor_light ]
/var/folders/06/dcbj2js154ngmm3yh5sfn9zm0000gq/T/_gbsbuild/obj/sprite_actor_music_tileset.rel
                                          [ sprite_actor_music_tileset ]
/var/folders/06/dcbj2js154ngmm3yh5sfn9zm0000gq/T/_gbsbuild/obj/sprite_actor_music.rel
                                          [ sprite_actor_music ]
/var/folders/06/dcbj2js154ngmm3yh5sfn9zm0000gq/T/_gbsbuild/obj/sprite_actor_old_man_2_tileset.rel
                                          [ sprite_actor_old_man_2_tileset ]
/var/folders/06/dcbj2js154ngmm3yh5sfn9zm0000gq/T/_gbsbuild/obj/sprite_actor_old_man_2.rel
                                          [ sprite_actor_old_man_2 ]
/var/folders/06/dcbj2js154ngmm3yh5sfn9zm0000gq/T/_gbsbuild/obj/sprite_actor_old_man_tileset.rel
                                          [ sprite_actor_old_man_tileset ]
/var/folders/06/dcbj2js154ngmm3yh5sfn9zm0000gq/T/_gbsbuild/obj/sprite_actor_old_man.rel
                                          [ sprite_actor_old_man ]
/var/folders/06/dcbj2js154ngmm3yh5sfn9zm0000gq/T/_gbsbuild/obj/sprite_actor_woman_tileset.rel
                                          [ sprite_actor_woman_tileset ]
/var/folders/06/dcbj2js154ngmm3yh5sfn9zm0000gq/T/_gbsbuild/obj/sprite_actor_woman.rel
                                          [ sprite_actor_woman ]
/var/folders/06/dcbj2js154ngmm3yh5sfn9zm0000gq/T/_gbsbuild/obj/sprite_static_bathtub_tileset.rel
                                          [ sprite_static_bathtub_tileset ]
/var/folders/06/dcbj2js154ngmm3yh5sfn9zm0000gq/T/_gbsbuild/obj/sprite_static_bathtub.rel
                                          [ sprite_static_bathtub ]
/var/folders/06/dcbj2js154ngmm3yh5sfn9zm0000gq/T/_gbsbuild/obj/sprite_static_bed_2_tileset.rel
                                          [ sprite_static_bed_2_tileset ]
/var/folders/06/dcbj2js154ngmm3yh5sfn9zm0000gq/T/_gbsbuild/obj/sprite_static_bed_2.rel
                                          [ sprite_static_bed_2 ]
/var/folders/06/dcbj2js154ngmm3yh5sfn9zm0000gq/T/_gbsbuild/obj/sprite_static_bed_tileset.rel
                                          [ sprite_static_bed_tileset ]
/var/folders/06/dcbj2js154ngmm3yh5sfn9zm0000gq/T/_gbsbuild/obj/sprite_static_bed.rel
                                          [ sprite_static_bed ]
/var/folders/06/dcbj2js154ngmm3yh5sfn9zm0000gq/T/_gbsbuild/obj/sprite_static_door_close_v1_tileset.rel
                                          [ sprite_static_door_close_v1_tile ]
/var/folders/06/dcbj2js154ngmm3yh5sfn9zm0000gq/T/_gbsbuild/obj/sprite_static_door_close_v1.rel
                                          [ sprite_static_door_close_v1 ]
/var/folders/06/dcbj2js154ngmm3yh5sfn9zm0000gq/T/_gbsbuild/obj/sprite_static_door_close_v2_tileset.rel
                                          [ sprite_static_door_close_v2_tile ]
/var/folders/06/dcbj2js154ngmm3yh5sfn9zm0000gq/T/_gbsbuild/obj/sprite_static_door_close_v2.rel
                                          [ sprite_static_door_close_v2 ]
/var/folders/06/dcbj2js154ngmm3yh5sfn9zm0000gq/T/_gbsbuild/obj/sprite_static_door_close_v3_tileset.rel
                                          [ sprite_static_door_close_v3_tile ]
/var/folders/06/dcbj2js154ngmm3yh5sfn9zm0000gq/T/_gbsbuild/obj/sprite_static_door_close_v3.rel
                                          [ sprite_static_door_close_v3 ]
/var/folders/06/dcbj2js154ngmm3yh5sfn9zm0000gq/T/_gbsbuild/obj/sprite_static_door_close_v4_tileset.rel
                                          [ sprite_static_door_close_v4_tile ]
/var/folders/06/dcbj2js154ngmm3yh5sfn9zm0000gq/T/_gbsbuild/obj/sprite_static_door_close_v4.rel
                                          [ sprite_static_door_close_v4 ]
/var/folders/06/dcbj2js154ngmm3yh5sfn9zm0000gq/T/_gbsbuild/obj/sprite_static_door_close_v5_tileset.rel
                                          [ sprite_static_door_close_v5_tile ]
/var/folders/06/dcbj2js154ngmm3yh5sfn9zm0000gq/T/_gbsbuild/obj/sprite_static_door_close_v5.rel
                                          [ sprite_static_door_close_v5 ]
/var/folders/06/dcbj2js154ngmm3yh5sfn9zm0000gq/T/_gbsbuild/obj/sprite_static_door_close_v6_tileset.rel
                                          [ sprite_static_door_close_v6_tile ]
/var/folders/06/dcbj2js154ngmm3yh5sfn9zm0000gq/T/_gbsbuild/obj/sprite_static_door_close_v6.rel
                                          [ sprite_static_door_close_v6 ]
/var/folders/06/dcbj2js154ngmm3yh5sfn9zm0000gq/T/_gbsbuild/obj/sprite_static_furniture_v1_tileset.rel
                                          [ sprite_static_furniture_v1_tiles ]
/var/folders/06/dcbj2js154ngmm3yh5sfn9zm0000gq/T/_gbsbuild/obj/sprite_static_furniture_v1.rel
                                          [ sprite_static_furniture_v1 ]
/var/folders/06/dcbj2js154ngmm3yh5sfn9zm0000gq/T/_gbsbuild/obj/sprite_static_furniture_v2_tileset.rel
                                          [ sprite_static_furniture_v2_tiles ]
/var/folders/06/dcbj2js154ngmm3yh5sfn9zm0000gq/T/_gbsbuild/obj/sprite_static_furniture_v2.rel
                                          [ sprite_static_furniture_v2 ]
/var/folders/06/dcbj2js154ngmm3yh5sfn9zm0000gq/T/_gbsbuild/obj/sprite_static_gas_stove_tileset.rel
                                          [ sprite_static_gas_stove_tileset ]
/var/folders/06/dcbj2js154ngmm3yh5sfn9zm0000gq/T/_gbsbuild/obj/sprite_static_gas_stove.rel
                                          [ sprite_static_gas_stove ]
/var/folders/06/dcbj2js154ngmm3yh5sfn9zm0000gq/T/_gbsbuild/obj/sprite_static_grand_pap_tileset.rel
                                          [ sprite_static_grand_pap_tileset ]
/var/folders/06/dcbj2js154ngmm3yh5sfn9zm0000gq/T/_gbsbuild/obj/sprite_static_grand_pap.rel
                                          [ sprite_static_grand_pap ]
/var/folders/06/dcbj2js154ngmm3yh5sfn9zm0000gq/T/_gbsbuild/obj/sprite_static_mirror_tileset.rel
                                          [ sprite_static_mirror_tileset ]
/var/folders/06/dcbj2js154ngmm3yh5sfn9zm0000gq/T/_gbsbuild/obj/sprite_static_mirror.rel
                                          [ sprite_static_mirror ]
/var/folders/06/dcbj2js154ngmm3yh5sfn9zm0000gq/T/_gbsbuild/obj/sprite_static_old_phone_tileset.rel
                                          [ sprite_static_old_phone_tileset ]
/var/folders/06/dcbj2js154ngmm3yh5sfn9zm0000gq/T/_gbsbuild/obj/sprite_static_old_phone.rel
                                          [ sprite_static_old_phone ]
/var/folders/06/dcbj2js154ngmm3yh5sfn9zm0000gq/T/_gbsbuild/obj/sprite_static_sign_tileset.rel
                                          [ sprite_static_sign_tileset ]
/var/folders/06/dcbj2js154ngmm3yh5sfn9zm0000gq/T/_gbsbuild/obj/sprite_static_sign.rel
                                          [ sprite_static_sign ]
/var/folders/06/dcbj2js154ngmm3yh5sfn9zm0000gq/T/_gbsbuild/obj/sprite_static_sink_tileset.rel
                                          [ sprite_static_sink_tileset ]
/var/folders/06/dcbj2js154ngmm3yh5sfn9zm0000gq/T/_gbsbuild/obj/sprite_static_sink.rel
                                          [ sprite_static_sink ]
/var/folders/06/dcbj2js154ngmm3yh5sfn9zm0000gq/T/_gbsbuild/obj/sprite_static_sleep_tileset.rel
                                          [ sprite_static_sleep_tileset ]
/var/folders/06/dcbj2js154ngmm3yh5sfn9zm0000gq/T/_gbsbuild/obj/sprite_static_sleep.rel
                                          [ sprite_static_sleep ]
/var/folders/06/dcbj2js154ngmm3yh5sfn9zm0000gq/T/_gbsbuild/obj/sprite_static_tv_tileset.rel
                                          [ sprite_static_tv_tileset ]
/var/folders/06/dcbj2js154ngmm3yh5sfn9zm0000gq/T/_gbsbuild/obj/sprite_static_tv.rel
                                          [ sprite_static_tv ]
/var/folders/06/dcbj2js154ngmm3yh5sfn9zm0000gq/T/_gbsbuild/obj/sprite_static_washbasin_tileset.rel
                                          [ sprite_static_washbasin_tileset ]
/var/folders/06/dcbj2js154ngmm3yh5sfn9zm0000gq/T/_gbsbuild/obj/sprite_static_washbasin.rel
                                          [ sprite_static_washbasin ]
/var/folders/06/dcbj2js154ngmm3yh5sfn9zm0000gq/T/_gbsbuild/obj/spritesheet_none.rel
                                          [ spritesheet_none ]
/var/folders/06/dcbj2js154ngmm3yh5sfn9zm0000gq/T/_gbsbuild/obj/tileset_default_frame.rel
                                          [ tileset_default_frame ]
/var/folders/06/dcbj2js154ngmm3yh5sfn9zm0000gq/T/_gbsbuild/obj/trigger_0_interact.rel
                                          [ trigger_0_interact ]
/var/folders/06/dcbj2js154ngmm3yh5sfn9zm0000gq/T/_gbsbuild/obj/trigger_1_interact.rel
                                          [ trigger_1_interact ]
/var/folders/06/dcbj2js154ngmm3yh5sfn9zm0000gq/T/_gbsbuild/obj/trigger_14_interact.rel
                                          [ trigger_14_interact ]
/var/folders/06/dcbj2js154ngmm3yh5sfn9zm0000gq/T/_gbsbuild/obj/trigger_15_interact.rel
                                          [ trigger_15_interact ]
/var/folders/06/dcbj2js154ngmm3yh5sfn9zm0000gq/T/_gbsbuild/obj/trigger_16_interact.rel
                                          [ trigger_16_interact ]
/var/folders/06/dcbj2js154ngmm3yh5sfn9zm0000gq/T/_gbsbuild/obj/trigger_18_interact.rel
                                          [ trigger_18_interact ]
/var/folders/06/dcbj2js154ngmm3yh5sfn9zm0000gq/T/_gbsbuild/obj/trigger_19_interact.rel
                                          [ trigger_19_interact ]
/var/folders/06/dcbj2js154ngmm3yh5sfn9zm0000gq/T/_gbsbuild/obj/trigger_2_interact.rel
                                          [ trigger_2_interact ]
/var/folders/06/dcbj2js154ngmm3yh5sfn9zm0000gq/T/_gbsbuild/obj/trigger_20_interact.rel
                                          [ trigger_20_interact ]
/var/folders/06/dcbj2js154ngmm3yh5sfn9zm0000gq/T/_gbsbuild/obj/trigger_21_interact.rel
                                          [ trigger_21_interact ]
/var/folders/06/dcbj2js154ngmm3yh5sfn9zm0000gq/T/_gbsbuild/obj/trigger_23_interact.rel
                                          [ trigger_23_interact ]
/var/folders/06/dcbj2js154ngmm3yh5sfn9zm0000gq/T/_gbsbuild/obj/trigger_24_interact.rel
                                          [ trigger_24_interact ]
/var/folders/06/dcbj2js154ngmm3yh5sfn9zm0000gq/T/_gbsbuild/obj/trigger_25_interact.rel
                                          [ trigger_25_interact ]
/var/folders/06/dcbj2js154ngmm3yh5sfn9zm0000gq/T/_gbsbuild/obj/trigger_26_interact.rel
                                          [ trigger_26_interact ]
/var/folders/06/dcbj2js154ngmm3yh5sfn9zm0000gq/T/_gbsbuild/obj/trigger_27_interact.rel
                                          [ trigger_27_interact ]
/var/folders/06/dcbj2js154ngmm3yh5sfn9zm0000gq/T/_gbsbuild/obj/trigger_28_interact.rel
                                          [ trigger_28_interact ]
/var/folders/06/dcbj2js154ngmm3yh5sfn9zm0000gq/T/_gbsbuild/obj/trigger_29_interact.rel
                                          [ trigger_29_interact ]
/var/folders/06/dcbj2js154ngmm3yh5sfn9zm0000gq/T/_gbsbuild/obj/trigger_3_interact.rel
                                          [ trigger_3_interact ]
/var/folders/06/dcbj2js154ngmm3yh5sfn9zm0000gq/T/_gbsbuild/obj/trigger_30_interact.rel
                                          [ trigger_30_interact ]
/var/folders/06/dcbj2js154ngmm3yh5sfn9zm0000gq/T/_gbsbuild/obj/trigger_33_interact.rel
                                          [ trigger_33_interact ]
/var/folders/06/dcbj2js154ngmm3yh5sfn9zm0000gq/T/_gbsbuild/obj/trigger_34_interact.rel
                                          [ trigger_34_interact ]
/var/folders/06/dcbj2js154ngmm3yh5sfn9zm0000gq/T/_gbsbuild/obj/trigger_35_interact.rel
                                          [ trigger_35_interact ]
/var/folders/06/dcbj2js154ngmm3yh5sfn9zm0000gq/T/_gbsbuild/obj/trigger_4_interact.rel
                                          [ trigger_4_interact ]
/var/folders/06/dcbj2js154ngmm3yh5sfn9zm0000gq/T/_gbsbuild/obj/trigger_5_interact.rel
                                          [ trigger_5_interact ]
/var/folders/06/dcbj2js154ngmm3yh5sfn9zm0000gq/T/_gbsbuild/obj/trigger_51_interact.rel
                                          [ trigger_51_interact ]
/var/folders/06/dcbj2js154ngmm3yh5sfn9zm0000gq/T/_gbsbuild/obj/trigger_52_interact.rel
                                          [ trigger_52_interact ]
/var/folders/06/dcbj2js154ngmm3yh5sfn9zm0000gq/T/_gbsbuild/obj/trigger_53_interact.rel
                                          [ trigger_53_interact ]
/var/folders/06/dcbj2js154ngmm3yh5sfn9zm0000gq/T/_gbsbuild/obj/trigger_6_interact.rel
                                          [ trigger_6_interact ]
/var/folders/06/dcbj2js154ngmm3yh5sfn9zm0000gq/T/_gbsbuild/obj/main.rel
                                          [ main ]
/var/folders/06/dcbj2js154ngmm3yh5sfn9zm0000gq/T/_gbsbuild/obj/logo.rel
                                          [ logo ]
/var/folders/06/dcbj2js154ngmm3yh5sfn9zm0000gq/T/_gbsbuild/obj/states_ptrs.rel
                                          [  ]
/var/folders/06/dcbj2js154ngmm3yh5sfn9zm0000gq/T/_gbsbuild/obj/topdown.rel
                                          [ topdown ]


Libraries Linked                          [ object file ]

/var/folders/06/dcbj2js154ngmm3yh5sfn9zm0000gq/T/_gbstools/gbdk/lib/gb/gb.lib
                                          [ fill_rect_wi.o ]
/var/folders/06/dcbj2js154ngmm3yh5sfn9zm0000gq/T/_gbstools/gbdk/lib/sm83/sm83.lib
                                          [ rand.o ]
lib/hUGEDriver.lib                        [ hUGEDriver.o ]
/var/folders/06/dcbj2js154ngmm3yh5sfn9zm0000gq/T/_gbstools/gbdk/lib/gb/gb.lib
                                          [ sfr.o ]
/var/folders/06/dcbj2js154ngmm3yh5sfn9zm0000gq/T/_gbstools/gbdk/lib/gb/gb.lib
                                          [ get_data.o ]
/var/folders/06/dcbj2js154ngmm3yh5sfn9zm0000gq/T/_gbstools/gbdk/lib/gb/gb.lib
                                          [ get_tile.o ]
/var/folders/06/dcbj2js154ngmm3yh5sfn9zm0000gq/T/_gbstools/gbdk/lib/gb/gb.lib
                                          [ metasprites_hide_spr.o ]
/var/folders/06/dcbj2js154ngmm3yh5sfn9zm0000gq/T/_gbstools/gbdk/lib/sm83/sm83.lib
                                          [ mul.o ]
/var/folders/06/dcbj2js154ngmm3yh5sfn9zm0000gq/T/_gbstools/gbdk/lib/gb/gb.lib
                                          [ set_tile.o ]
/var/folders/06/dcbj2js154ngmm3yh5sfn9zm0000gq/T/_gbstools/gbdk/lib/sm83/sm83.lib
                                          [ abs.o ]
/var/folders/06/dcbj2js154ngmm3yh5sfn9zm0000gq/T/_gbstools/gbdk/lib/gb/gb.lib
                                          [ set_wi_t.o ]
/var/folders/06/dcbj2js154ngmm3yh5sfn9zm0000gq/T/_gbstools/gbdk/lib/gb/gb.lib
                                          [ set_data.o ]
/var/folders/06/dcbj2js154ngmm3yh5sfn9zm0000gq/T/_gbstools/gbdk/lib/sm83/sm83.lib
                                          [ reverse.o ]
/var/folders/06/dcbj2js154ngmm3yh5sfn9zm0000gq/T/_gbstools/gbdk/lib/gb/gb.lib
                                          [ far_ptr.o ]
/var/folders/06/dcbj2js154ngmm3yh5sfn9zm0000gq/T/_gbstools/gbdk/lib/gb/gb.lib
                                          [ sgb.o ]
/var/folders/06/dcbj2js154ngmm3yh5sfn9zm0000gq/T/_gbstools/gbdk/lib/gb/gb.lib
                                          [ lcd.o ]
/var/folders/06/dcbj2js154ngmm3yh5sfn9zm0000gq/T/_gbstools/gbdk/lib/gb/gb.lib
                                          [ fill_rect.o ]
/var/folders/06/dcbj2js154ngmm3yh5sfn9zm0000gq/T/_gbstools/gbdk/lib/gb/gb.lib
                                          [ cpy_data.o ]
/var/folders/06/dcbj2js154ngmm3yh5sfn9zm0000gq/T/_gbstools/gbdk/lib/gb/gb.lib
                                          [ fill_rect_bk.o ]
/var/folders/06/dcbj2js154ngmm3yh5sfn9zm0000gq/T/_gbstools/gbdk/lib/gb/gb.lib
                                          [ pad.o ]
/var/folders/06/dcbj2js154ngmm3yh5sfn9zm0000gq/T/_gbstools/gbdk/lib/gb/gb.lib
                                          [ metasprites.o ]
/var/folders/06/dcbj2js154ngmm3yh5sfn9zm0000gq/T/_gbstools/gbdk/lib/sm83/sm83.lib
                                          [ __sdcc_call_hl.o ]
/var/folders/06/dcbj2js154ngmm3yh5sfn9zm0000gq/T/_gbstools/gbdk/lib/sm83/sm83.lib
                                          [ memcpy.o ]
/var/folders/06/dcbj2js154ngmm3yh5sfn9zm0000gq/T/_gbstools/gbdk/lib/sm83/sm83.lib
                                          [ _memset.o ]
/var/folders/06/dcbj2js154ngmm3yh5sfn9zm0000gq/T/_gbstools/gbdk/lib/gb/gb.lib
                                          [ set_xy_t.o ]
/var/folders/06/dcbj2js154ngmm3yh5sfn9zm0000gq/T/_gbstools/gbdk/lib/gb/gb.lib
                                          [ ___sdcc_bcall_ehl.o ]
/var/folders/06/dcbj2js154ngmm3yh5sfn9zm0000gq/T/_gbstools/gbdk/lib/sm83/sm83.lib
                                          [ div.o ]
/var/folders/06/dcbj2js154ngmm3yh5sfn9zm0000gq/T/_gbstools/gbdk/lib/gb/gb.lib
                                          [ set_bk_t.o ]

ASxxxx Linker V03.00/V05.40 + sdld,  page 83.

User Base Address Definitions

_DATA=0xC0A0
_CODE=0x0200
ASxxxx Linker V03.00/V05.40 + sdld,  page 84.

User Global Definitions

.STACK=0xDF00
_shadow_OAM=0xC000
.refresh_OAM=0xFF80
__start_save=4

